DYNAMICTRACE INP [None] RUNID 3 EXE thread
WRITE THREADID 0 VARCLASS LOCAL OFFSET 0x4 VARNAME i VARID 101237635748 FUNCNAME main SYNCS ASYNC id 1 INVNO 1
CALL THREADID 0 CALLERNAME main CALLEENAME pthread_mutex_init@plt id 2 ARGS NONE STATICCALL [	101185903879 pthread_mutex_init ( & lock , NULL )	] INVNO 1
READ THREADID 0 VARCLASS LOCAL OFFSET 0x4 VARNAME i VARID 101237635748 FUNCNAME main SYNCS ASYNC id 3 INVNO 1
READ THREADID 0 VARCLASS LOCAL OFFSET 0x4 VARNAME i VARID 101237635748 FUNCNAME main SYNCS ASYNC id 4 INVNO 1
READ THREADID 0 VARCLASS LOCAL OFFSET 0x4 VARNAME i VARID 101237635748 FUNCNAME main SYNCS ASYNC id 5 INVNO 1
WRITE THREADID 0 VARCLASS LOCAL OFFSET 0x10 VARNAME a VARID 100091982823 POS 0 FUNCNAME main SYNCS ASYNC id 6 INVNO 1
READ THREADID 0 VARCLASS LOCAL OFFSET 0x4 VARNAME i VARID 101237635748 FUNCNAME main SYNCS ASYNC id 7 INVNO 1
READ THREADID 0 VARCLASS LOCAL OFFSET 0x4 VARNAME i VARID 101237635748 FUNCNAME main SYNCS ASYNC id 8 INVNO 1
CALL THREADID 0 CALLERNAME main CALLEENAME pthread_create@plt id 9 ARGS NONE STATICCALL [	101971082186 pthread_create ( & ( tid [ i ] ) , NULL , & trythis , ( void * ) ( & a [ i ] ) )	] INVNO 1
WRITE THREADID 0 VARCLASS LOCAL OFFSET 0x8 VARNAME error VARID 102304916143 FUNCNAME main SYNCS ASYNC id 10 INVNO 1
READ THREADID 0 VARCLASS LOCAL OFFSET 0x8 VARNAME error VARID 102304916143 FUNCNAME main SYNCS ASYNC id 11 INVNO 1
READ THREADID 0 VARCLASS LOCAL OFFSET 0x4 VARNAME i VARID 101237635748 FUNCNAME main SYNCS ASYNC id 12 INVNO 1
READ THREADID 0 VARCLASS LOCAL OFFSET 0x4 VARNAME i VARID 101237635748 FUNCNAME main SYNCS ASYNC id 13 INVNO 1
READ THREADID 0 VARCLASS LOCAL OFFSET 0x4 VARNAME i VARID 101237635748 FUNCNAME main SYNCS ASYNC id 14 INVNO 1
READ THREADID 0 VARCLASS LOCAL OFFSET 0x4 VARNAME i VARID 101237635748 FUNCNAME main SYNCS ASYNC id 15 INVNO 1
WRITE THREADID 0 VARCLASS LOCAL OFFSET 0xc VARNAME a VARID 100091982823 POS 1 FUNCNAME main SYNCS ASYNC id 16 INVNO 1
READ THREADID 0 VARCLASS LOCAL OFFSET 0x4 VARNAME i VARID 101237635748 FUNCNAME main SYNCS ASYNC id 17 INVNO 1
READ THREADID 0 VARCLASS LOCAL OFFSET 0x4 VARNAME i VARID 101237635748 FUNCNAME main SYNCS ASYNC id 18 INVNO 1
CALL THREADID 0 CALLERNAME main CALLEENAME pthread_create@plt id 19 ARGS NONE STATICCALL [	101971082186 pthread_create ( & ( tid [ i ] ) , NULL , & trythis , ( void * ) ( & a [ i ] ) )	] INVNO 1
POINTERWRITE THREADID 1 VARCLASS LOCAL WRITEVALUE 0x7ffd9ed43610 POINTEEID 100091982823 POINTEECLASS NONLOCALSTACK POINTEENAME a POINTEEINDEX 0 POINTEEFUNC main POINTEEFUNCTID 0 POINTEEFUNCINVNO 1 OFFSET 0x18 VARNAME arg VARID 201041511268 FUNCNAME _Z7trythisPv SYNCS ASYNC id 20 INVNO 1
READ THREADID 1 VARCLASS LOCAL OFFSET 0x18 VARNAME arg VARID 201041511268 FUNCNAME _Z7trythisPv SYNCS ASYNC id 21 INVNO 1
READ THREADID 1 VARCLASS NONLOCALSTACK VARFUNCNAME main VARFUNCTID 0 VARFUNCINVNO 1 OFFSET 0x10 VARNAME a VARID 100091982823 POS 0 FUNCNAME _Z7trythisPv SYNCS ASYNC id 22 INVNO 1
CALL THREADID 1 CALLERNAME _Z7trythisPv CALLEENAME printf@plt id 23 ARGS NONE STATICCALL [	202439010029 printf ( "\n Came here with arg = %d\n" , * ( ( int * ) arg ) )	] INVNO 1
WRITE THREADID 0 VARCLASS LOCAL OFFSET 0x8 VARNAME error VARID 102304916143 FUNCNAME main SYNCS ASYNC id 24 INVNO 1
READ THREADID 0 VARCLASS LOCAL OFFSET 0x8 VARNAME error VARID 102304916143 FUNCNAME main SYNCS ASYNC id 25 INVNO 1
READ THREADID 0 VARCLASS LOCAL OFFSET 0x4 VARNAME i VARID 101237635748 FUNCNAME main SYNCS ASYNC id 26 INVNO 1
READ THREADID 0 VARCLASS LOCAL OFFSET 0x4 VARNAME i VARID 101237635748 FUNCNAME main SYNCS ASYNC id 27 INVNO 1
WRITE THREADID 1 VARCLASS LOCAL OFFSET 0x8 VARNAME i VARID 203649658261 FUNCNAME _Z7trythisPv SYNCS ASYNC id 28 INVNO 1
WRITE THREADID 1 VARCLASS LOCAL OFFSET 0x10 VARNAME r VARID 202698037734 FUNCNAME _Z7trythisPv SYNCS ASYNC id 29 INVNO 1
CALL THREADID 1 CALLERNAME _Z7trythisPv CALLEENAME pthread_mutex_lock@plt id 30 ARGS NONE STATICCALL [	201283292591 pthread_mutex_lock ( & lock )	] INVNO 1
LOCK TID 1 ADDRESS 0x6020c0 TYPE MUTEX id 31
READ THREADID 0 VARCLASS GLOBAL ADDRESS 0x602090 VARNAME tid VARID 100227397058 POS 0 FUNCNAME main SYNCS ASYNC id 32 INVNO 1
CALL THREADID 0 CALLERNAME main CALLEENAME pthread_join@plt id 33 ARGS NONE STATICCALL [	100749008834 pthread_join ( tid [ 0 ] , NULL )	] INVNO 1
POINTERWRITE THREADID 2 VARCLASS LOCAL WRITEVALUE 0x7ffd9ed43614 POINTEEID 100091982823 POINTEECLASS NONLOCALSTACK POINTEENAME a POINTEEINDEX 1 POINTEEFUNC main POINTEEFUNCTID 0 POINTEEFUNCINVNO 1 OFFSET 0x18 VARNAME arg VARID 201041511268 FUNCNAME _Z7trythisPv SYNCS ASYNC id 34 INVNO 1
READ THREADID 2 VARCLASS LOCAL OFFSET 0x18 VARNAME arg VARID 201041511268 FUNCNAME _Z7trythisPv SYNCS ASYNC id 35 INVNO 1
READ THREADID 2 VARCLASS NONLOCALSTACK VARFUNCNAME main VARFUNCTID 0 VARFUNCINVNO 1 OFFSET 0xc VARNAME a VARID 100091982823 POS 1 FUNCNAME _Z7trythisPv SYNCS ASYNC id 36 INVNO 1
CALL THREADID 2 CALLERNAME _Z7trythisPv CALLEENAME printf@plt id 37 ARGS NONE STATICCALL [	202439010029 printf ( "\n Came here with arg = %d\n" , * ( ( int * ) arg ) )	] INVNO 1
READ THREADID 1 VARCLASS LOCAL OFFSET 0x10 VARNAME r VARID 202698037734 FUNCNAME _Z7trythisPv SYNCS 1 ADDRESS 0x6020c0 TYPE MUTEX id 38 INVNO 1
READ THREADID 1 VARCLASS GLOBAL ADDRESS 0x6020a0 VARNAME counter VARID 103780898756 FUNCNAME _Z7trythisPv SYNCS 1 ADDRESS 0x6020c0 TYPE MUTEX id 39 INVNO 1
WRITE THREADID 1 VARCLASS GLOBAL ADDRESS 0x6020a0 VARNAME counter VARID 103780898756 FUNCNAME _Z7trythisPv SYNCS 1 ADDRESS 0x6020c0 TYPE MUTEX id 40 INVNO 1
READ THREADID 1 VARCLASS GLOBAL ADDRESS 0x6020a0 VARNAME counter VARID 103780898756 FUNCNAME _Z7trythisPv SYNCS 1 ADDRESS 0x6020c0 TYPE MUTEX id 41 INVNO 1
CALL THREADID 1 CALLERNAME _Z7trythisPv CALLEENAME printf@plt id 42 ARGS NONE STATICCALL [	203089726240 printf ( "\n Job %d has started\n" , counter )	] INVNO 1
WRITE THREADID 1 VARCLASS LOCAL OFFSET 0x8 VARNAME i VARID 203649658261 FUNCNAME _Z7trythisPv SYNCS 1 ADDRESS 0x6020c0 TYPE MUTEX id 43 INVNO 1
READ THREADID 1 VARCLASS LOCAL OFFSET 0x8 VARNAME i VARID 203649658261 FUNCNAME _Z7trythisPv SYNCS 1 ADDRESS 0x6020c0 TYPE MUTEX id 44 INVNO 1
READ THREADID 1 VARCLASS LOCAL OFFSET 0x8 VARNAME i VARID 203649658261 FUNCNAME _Z7trythisPv SYNCS 1 ADDRESS 0x6020c0 TYPE MUTEX id 45 INVNO 1
READ THREADID 1 VARCLASS LOCAL OFFSET 0x8 VARNAME i VARID 203649658261 FUNCNAME _Z7trythisPv SYNCS 1 ADDRESS 0x6020c0 TYPE MUTEX id 46 INVNO 1
READ THREADID 1 VARCLASS LOCAL OFFSET 0x8 VARNAME i VARID 203649658261 FUNCNAME _Z7trythisPv SYNCS 1 ADDRESS 0x6020c0 TYPE MUTEX id 47 INVNO 1
READ THREADID 1 VARCLASS LOCAL OFFSET 0x8 VARNAME i VARID 203649658261 FUNCNAME _Z7trythisPv SYNCS 1 ADDRESS 0x6020c0 TYPE MUTEX id 48 INVNO 1
READ THREADID 1 VARCLASS LOCAL OFFSET 0x8 VARNAME i VARID 203649658261 FUNCNAME _Z7trythisPv SYNCS 1 ADDRESS 0x6020c0 TYPE MUTEX id 49 INVNO 1
READ THREADID 1 VARCLASS LOCAL OFFSET 0x8 VARNAME i VARID 203649658261 FUNCNAME _Z7trythisPv SYNCS 1 ADDRESS 0x6020c0 TYPE MUTEX id 50 INVNO 1
READ THREADID 1 VARCLASS LOCAL OFFSET 0x8 VARNAME i VARID 203649658261 FUNCNAME _Z7trythisPv SYNCS 1 ADDRESS 0x6020c0 TYPE MUTEX id 51 INVNO 1
READ THREADID 1 VARCLASS LOCAL OFFSET 0x8 VARNAME i VARID 203649658261 FUNCNAME _Z7trythisPv SYNCS 1 ADDRESS 0x6020c0 TYPE MUTEX id 52 INVNO 1
READ THREADID 1 VARCLASS LOCAL OFFSET 0x8 VARNAME i VARID 203649658261 FUNCNAME _Z7trythisPv SYNCS 1 ADDRESS 0x6020c0 TYPE MUTEX id 53 INVNO 1
READ THREADID 1 VARCLASS LOCAL OFFSET 0x8 VARNAME i VARID 203649658261 FUNCNAME _Z7trythisPv SYNCS 1 ADDRESS 0x6020c0 TYPE MUTEX id 54 INVNO 1
READ THREADID 1 VARCLASS LOCAL OFFSET 0x8 VARNAME i VARID 203649658261 FUNCNAME _Z7trythisPv SYNCS 1 ADDRESS 0x6020c0 TYPE MUTEX id 55 INVNO 1
READ THREADID 1 VARCLASS LOCAL OFFSET 0x8 VARNAME i VARID 203649658261 FUNCNAME _Z7trythisPv SYNCS 1 ADDRESS 0x6020c0 TYPE MUTEX id 56 INVNO 1
READ THREADID 1 VARCLASS LOCAL OFFSET 0x8 VARNAME i VARID 203649658261 FUNCNAME _Z7trythisPv SYNCS 1 ADDRESS 0x6020c0 TYPE MUTEX id 57 INVNO 1
READ THREADID 1 VARCLASS LOCAL OFFSET 0x8 VARNAME i VARID 203649658261 FUNCNAME _Z7trythisPv SYNCS 1 ADDRESS 0x6020c0 TYPE MUTEX id 58 INVNO 1
READ THREADID 1 VARCLASS LOCAL OFFSET 0x8 VARNAME i VARID 203649658261 FUNCNAME _Z7trythisPv SYNCS 1 ADDRESS 0x6020c0 TYPE MUTEX id 59 INVNO 1
READ THREADID 1 VARCLASS LOCAL OFFSET 0x8 VARNAME i VARID 203649658261 FUNCNAME _Z7trythisPv SYNCS 1 ADDRESS 0x6020c0 TYPE MUTEX id 60 INVNO 1
READ THREADID 1 VARCLASS LOCAL OFFSET 0x8 VARNAME i VARID 203649658261 FUNCNAME _Z7trythisPv SYNCS 1 ADDRESS 0x6020c0 TYPE MUTEX id 61 INVNO 1
READ THREADID 1 VARCLASS LOCAL OFFSET 0x8 VARNAME i VARID 203649658261 FUNCNAME _Z7trythisPv SYNCS 1 ADDRESS 0x6020c0 TYPE MUTEX id 62 INVNO 1
READ THREADID 1 VARCLASS LOCAL OFFSET 0x8 VARNAME i VARID 203649658261 FUNCNAME _Z7trythisPv SYNCS 1 ADDRESS 0x6020c0 TYPE MUTEX id 63 INVNO 1
READ THREADID 1 VARCLASS LOCAL OFFSET 0x8 VARNAME i VARID 203649658261 FUNCNAME _Z7trythisPv SYNCS 1 ADDRESS 0x6020c0 TYPE MUTEX id 64 INVNO 1
READ THREADID 1 VARCLASS GLOBAL ADDRESS 0x6020a0 VARNAME counter VARID 103780898756 FUNCNAME _Z7trythisPv SYNCS 1 ADDRESS 0x6020c0 TYPE MUTEX id 65 INVNO 1
CALL THREADID 1 CALLERNAME _Z7trythisPv CALLEENAME printf@plt id 66 ARGS NONE STATICCALL [	201567443402 printf ( "\n Job %d has finished\n" , counter )	] INVNO 1
WRITE THREADID 2 VARCLASS LOCAL OFFSET 0x8 VARNAME i VARID 203649658261 FUNCNAME _Z7trythisPv SYNCS ASYNC id 67 INVNO 1
WRITE THREADID 2 VARCLASS LOCAL OFFSET 0x10 VARNAME r VARID 202698037734 FUNCNAME _Z7trythisPv SYNCS ASYNC id 68 INVNO 1
CALL THREADID 2 CALLERNAME _Z7trythisPv CALLEENAME pthread_mutex_lock@plt id 69 ARGS NONE STATICCALL [	201283292591 pthread_mutex_lock ( & lock )	] INVNO 1
LOCK TID 2 ADDRESS 0x6020c0 TYPE MUTEX id 70
CALL THREADID 1 CALLERNAME _Z7trythisPv CALLEENAME pthread_mutex_unlock@plt id 71 ARGS NONE STATICCALL [	201620325997 pthread_mutex_unlock ( & lock )	] INVNO 1
UNLOCK TID 1 ADDRESS 0x6020c0 TYPE MUTEX id 72
RETURN THREADID 1 FUNCNAME _Z7trythisPv id 73 RETVAL UNKNOWN INVNO 1
READ THREADID 2 VARCLASS LOCAL OFFSET 0x10 VARNAME r VARID 202698037734 FUNCNAME _Z7trythisPv SYNCS 1 ADDRESS 0x6020c0 TYPE MUTEX id 74 INVNO 1
READ THREADID 2 VARCLASS GLOBAL ADDRESS 0x6020a0 VARNAME counter VARID 103780898756 FUNCNAME _Z7trythisPv SYNCS 1 ADDRESS 0x6020c0 TYPE MUTEX id 75 INVNO 1
WRITE THREADID 2 VARCLASS GLOBAL ADDRESS 0x6020a0 VARNAME counter VARID 103780898756 FUNCNAME _Z7trythisPv SYNCS 1 ADDRESS 0x6020c0 TYPE MUTEX id 76 INVNO 1
READ THREADID 2 VARCLASS GLOBAL ADDRESS 0x6020a0 VARNAME counter VARID 103780898756 FUNCNAME _Z7trythisPv SYNCS 1 ADDRESS 0x6020c0 TYPE MUTEX id 77 INVNO 1
CALL THREADID 2 CALLERNAME _Z7trythisPv CALLEENAME printf@plt id 78 ARGS NONE STATICCALL [	203089726240 printf ( "\n Job %d has started\n" , counter )	] INVNO 1
WRITE THREADID 2 VARCLASS LOCAL OFFSET 0x8 VARNAME i VARID 203649658261 FUNCNAME _Z7trythisPv SYNCS 1 ADDRESS 0x6020c0 TYPE MUTEX id 79 INVNO 1
READ THREADID 2 VARCLASS LOCAL OFFSET 0x8 VARNAME i VARID 203649658261 FUNCNAME _Z7trythisPv SYNCS 1 ADDRESS 0x6020c0 TYPE MUTEX id 80 INVNO 1
READ THREADID 2 VARCLASS LOCAL OFFSET 0x8 VARNAME i VARID 203649658261 FUNCNAME _Z7trythisPv SYNCS 1 ADDRESS 0x6020c0 TYPE MUTEX id 81 INVNO 1
READ THREADID 2 VARCLASS LOCAL OFFSET 0x8 VARNAME i VARID 203649658261 FUNCNAME _Z7trythisPv SYNCS 1 ADDRESS 0x6020c0 TYPE MUTEX id 82 INVNO 1
READ THREADID 2 VARCLASS LOCAL OFFSET 0x8 VARNAME i VARID 203649658261 FUNCNAME _Z7trythisPv SYNCS 1 ADDRESS 0x6020c0 TYPE MUTEX id 83 INVNO 1
READ THREADID 2 VARCLASS LOCAL OFFSET 0x8 VARNAME i VARID 203649658261 FUNCNAME _Z7trythisPv SYNCS 1 ADDRESS 0x6020c0 TYPE MUTEX id 84 INVNO 1
READ THREADID 2 VARCLASS LOCAL OFFSET 0x8 VARNAME i VARID 203649658261 FUNCNAME _Z7trythisPv SYNCS 1 ADDRESS 0x6020c0 TYPE MUTEX id 85 INVNO 1
READ THREADID 2 VARCLASS LOCAL OFFSET 0x8 VARNAME i VARID 203649658261 FUNCNAME _Z7trythisPv SYNCS 1 ADDRESS 0x6020c0 TYPE MUTEX id 86 INVNO 1
READ THREADID 2 VARCLASS LOCAL OFFSET 0x8 VARNAME i VARID 203649658261 FUNCNAME _Z7trythisPv SYNCS 1 ADDRESS 0x6020c0 TYPE MUTEX id 87 INVNO 1
READ THREADID 2 VARCLASS LOCAL OFFSET 0x8 VARNAME i VARID 203649658261 FUNCNAME _Z7trythisPv SYNCS 1 ADDRESS 0x6020c0 TYPE MUTEX id 88 INVNO 1
READ THREADID 2 VARCLASS LOCAL OFFSET 0x8 VARNAME i VARID 203649658261 FUNCNAME _Z7trythisPv SYNCS 1 ADDRESS 0x6020c0 TYPE MUTEX id 89 INVNO 1
READ THREADID 2 VARCLASS LOCAL OFFSET 0x8 VARNAME i VARID 203649658261 FUNCNAME _Z7trythisPv SYNCS 1 ADDRESS 0x6020c0 TYPE MUTEX id 90 INVNO 1
READ THREADID 2 VARCLASS LOCAL OFFSET 0x8 VARNAME i VARID 203649658261 FUNCNAME _Z7trythisPv SYNCS 1 ADDRESS 0x6020c0 TYPE MUTEX id 91 INVNO 1
READ THREADID 2 VARCLASS LOCAL OFFSET 0x8 VARNAME i VARID 203649658261 FUNCNAME _Z7trythisPv SYNCS 1 ADDRESS 0x6020c0 TYPE MUTEX id 92 INVNO 1
READ THREADID 2 VARCLASS LOCAL OFFSET 0x8 VARNAME i VARID 203649658261 FUNCNAME _Z7trythisPv SYNCS 1 ADDRESS 0x6020c0 TYPE MUTEX id 93 INVNO 1
READ THREADID 2 VARCLASS LOCAL OFFSET 0x8 VARNAME i VARID 203649658261 FUNCNAME _Z7trythisPv SYNCS 1 ADDRESS 0x6020c0 TYPE MUTEX id 94 INVNO 1
READ THREADID 2 VARCLASS LOCAL OFFSET 0x8 VARNAME i VARID 203649658261 FUNCNAME _Z7trythisPv SYNCS 1 ADDRESS 0x6020c0 TYPE MUTEX id 95 INVNO 1
READ THREADID 2 VARCLASS LOCAL OFFSET 0x8 VARNAME i VARID 203649658261 FUNCNAME _Z7trythisPv SYNCS 1 ADDRESS 0x6020c0 TYPE MUTEX id 96 INVNO 1
READ THREADID 2 VARCLASS LOCAL OFFSET 0x8 VARNAME i VARID 203649658261 FUNCNAME _Z7trythisPv SYNCS 1 ADDRESS 0x6020c0 TYPE MUTEX id 97 INVNO 1
READ THREADID 2 VARCLASS LOCAL OFFSET 0x8 VARNAME i VARID 203649658261 FUNCNAME _Z7trythisPv SYNCS 1 ADDRESS 0x6020c0 TYPE MUTEX id 98 INVNO 1
READ THREADID 2 VARCLASS LOCAL OFFSET 0x8 VARNAME i VARID 203649658261 FUNCNAME _Z7trythisPv SYNCS 1 ADDRESS 0x6020c0 TYPE MUTEX id 99 INVNO 1
READ THREADID 2 VARCLASS LOCAL OFFSET 0x8 VARNAME i VARID 203649658261 FUNCNAME _Z7trythisPv SYNCS 1 ADDRESS 0x6020c0 TYPE MUTEX id 100 INVNO 1
READ THREADID 2 VARCLASS GLOBAL ADDRESS 0x6020a0 VARNAME counter VARID 103780898756 FUNCNAME _Z7trythisPv SYNCS 1 ADDRESS 0x6020c0 TYPE MUTEX id 101 INVNO 1
CALL THREADID 2 CALLERNAME _Z7trythisPv CALLEENAME printf@plt id 102 ARGS NONE STATICCALL [	201567443402 printf ( "\n Job %d has finished\n" , counter )	] INVNO 1
CALL THREADID 2 CALLERNAME _Z7trythisPv CALLEENAME pthread_mutex_unlock@plt id 103 ARGS NONE STATICCALL [	201620325997 pthread_mutex_unlock ( & lock )	] INVNO 1
UNLOCK TID 2 ADDRESS 0x6020c0 TYPE MUTEX id 104
RETURN THREADID 2 FUNCNAME _Z7trythisPv id 105 RETVAL UNKNOWN INVNO 1
READ THREADID 0 VARCLASS GLOBAL ADDRESS 0x602098 VARNAME tid VARID 100227397058 POS 1 FUNCNAME main SYNCS ASYNC id 106 INVNO 1
CALL THREADID 0 CALLERNAME main CALLEENAME pthread_join@plt id 107 ARGS NONE STATICCALL [	102205418364 pthread_join ( tid [ 1 ] , NULL )	] INVNO 1
CALL THREADID 0 CALLERNAME main CALLEENAME pthread_mutex_destroy@plt id 108 ARGS NONE STATICCALL [	102276562679 pthread_mutex_destroy ( & lock )	] INVNO 1
RETURN THREADID 0 FUNCNAME main id 109 RETVAL 0 INVNO 1
