WRITE THREADID 0 VARCLASS LOCAL OFFSET 0x4 VARNAME i VARID 101798738105 FUNCNAME main SYNCS ASYNC id 1 INVNO 1
CALL THREADID 0 CALLERNAME main CALLEENAME pthread_mutex_init@plt id 2 ARGS NONE STATICCALL [	100451690777 pthread_mutex_init ( & lock , NULL )	] INVNO 1
READ THREADID 0 VARCLASS LOCAL OFFSET 0x4 VARNAME i VARID 101798738105 FUNCNAME main SYNCS ASYNC id 3 INVNO 1
READ THREADID 0 VARCLASS LOCAL OFFSET 0x4 VARNAME i VARID 101798738105 FUNCNAME main SYNCS ASYNC id 4 INVNO 1
CALL THREADID 0 CALLERNAME main CALLEENAME pthread_create@plt id 5 ARGS NONE STATICCALL [	102508899874 pthread_create ( & ( tid [ i ] ) , NULL , & trythis , NULL )	] INVNO 1
WRITE THREADID 0 VARCLASS LOCAL OFFSET 0x8 VARNAME error VARID 104146784122 FUNCNAME main SYNCS ASYNC id 6 INVNO 1
READ THREADID 0 VARCLASS LOCAL OFFSET 0x8 VARNAME error VARID 104146784122 FUNCNAME main SYNCS ASYNC id 7 INVNO 1
READ THREADID 0 VARCLASS LOCAL OFFSET 0x4 VARNAME i VARID 101798738105 FUNCNAME main SYNCS ASYNC id 8 INVNO 1
READ THREADID 0 VARCLASS LOCAL OFFSET 0x10 VARNAME a VARID 100708388395 FUNCNAME main SYNCS ASYNC id 9 INVNO 1
READ THREADID 0 VARCLASS LOCAL OFFSET 0x4 VARNAME i VARID 101798738105 FUNCNAME main SYNCS ASYNC id 10 INVNO 1
WRITE THREADID 0 VARCLASS LOCAL OFFSET 0x10 VARNAME a VARID 100708388395 FUNCNAME main SYNCS ASYNC id 11 INVNO 1
READ THREADID 0 VARCLASS LOCAL OFFSET 0x4 VARNAME i VARID 101798738105 FUNCNAME main SYNCS ASYNC id 12 INVNO 1
READ THREADID 0 VARCLASS LOCAL OFFSET 0x4 VARNAME i VARID 101798738105 FUNCNAME main SYNCS ASYNC id 13 INVNO 1
READ THREADID 0 VARCLASS LOCAL OFFSET 0x4 VARNAME i VARID 101798738105 FUNCNAME main SYNCS ASYNC id 14 INVNO 1
CALL THREADID 0 CALLERNAME main CALLEENAME pthread_create@plt id 15 ARGS NONE STATICCALL [	102508899874 pthread_create ( & ( tid [ i ] ) , NULL , & trythis , NULL )	] INVNO 1
WRITE THREADID 0 VARCLASS LOCAL OFFSET 0x8 VARNAME error VARID 104146784122 FUNCNAME main SYNCS ASYNC id 16 INVNO 1
READ THREADID 0 VARCLASS LOCAL OFFSET 0x8 VARNAME error VARID 104146784122 FUNCNAME main SYNCS ASYNC id 17 INVNO 1
READ THREADID 0 VARCLASS LOCAL OFFSET 0x4 VARNAME i VARID 101798738105 FUNCNAME main SYNCS ASYNC id 18 INVNO 1
READ THREADID 0 VARCLASS LOCAL OFFSET 0x4 VARNAME i VARID 101798738105 FUNCNAME main SYNCS ASYNC id 19 INVNO 1
READ THREADID 0 VARCLASS LOCAL OFFSET 0x4 VARNAME i VARID 101798738105 FUNCNAME main SYNCS ASYNC id 20 INVNO 1
READ THREADID 0 VARCLASS LOCAL OFFSET 0x4 VARNAME i VARID 101798738105 FUNCNAME main SYNCS ASYNC id 21 INVNO 1
READ THREADID 0 VARCLASS GLOBAL ADDRESS 0x602090 VARNAME tid VARID 103554183116 FUNCNAME main SYNCS ASYNC id 22 INVNO 1
CALL THREADID 0 CALLERNAME main CALLEENAME pthread_join@plt id 23 ARGS NONE STATICCALL [	102756978794 pthread_join ( tid [ 0 ] , NULL )	] INVNO 1
WRITE THREADID 2 VARCLASS LOCAL OFFSET 0x18 VARNAME arg VARID 202006705404 FUNCNAME _Z7trythisPv SYNCS ASYNC id 24 INVNO 1
WRITE THREADID 2 VARCLASS LOCAL OFFSET 0x8 VARNAME i VARID 200922246609 FUNCNAME _Z7trythisPv SYNCS ASYNC id 25 INVNO 1
WRITE THREADID 2 VARCLASS LOCAL OFFSET 0x10 VARNAME r VARID 202477466354 FUNCNAME _Z7trythisPv SYNCS ASYNC id 26 INVNO 1
CALL THREADID 2 CALLERNAME _Z7trythisPv CALLEENAME pthread_mutex_lock@plt id 27 ARGS NONE STATICCALL [	203228838557 pthread_mutex_lock ( & lock )	] INVNO 1
WRITE THREADID 1 VARCLASS LOCAL OFFSET 0x18 VARNAME arg VARID 202006705404 FUNCNAME _Z7trythisPv SYNCS ASYNC id 28 INVNO 1
WRITE THREADID 1 VARCLASS LOCAL OFFSET 0x8 VARNAME i VARID 200922246609 FUNCNAME _Z7trythisPv SYNCS ASYNC id 29 INVNO 1
WRITE THREADID 1 VARCLASS LOCAL OFFSET 0x10 VARNAME r VARID 202477466354 FUNCNAME _Z7trythisPv SYNCS ASYNC id 30 INVNO 1
CALL THREADID 1 CALLERNAME _Z7trythisPv CALLEENAME pthread_mutex_lock@plt id 31 ARGS NONE STATICCALL [	203228838557 pthread_mutex_lock ( & lock )	] INVNO 1
LOCK TID 2 ADDRESS 0x6020c0 TYPE MUTEX id 32
LOCK TID 1 ADDRESS 0x6020c0 TYPE MUTEX id 33
READ THREADID 2 VARCLASS LOCAL OFFSET 0x10 VARNAME r VARID 202477466354 FUNCNAME _Z7trythisPv SYNCS 1 ADDRESS 0x6020c0 TYPE MUTEX id 34 INVNO 1
READ THREADID 2 VARCLASS GLOBAL ADDRESS 0x6020a0 VARNAME counter VARID 101920288916 FUNCNAME _Z7trythisPv SYNCS 1 ADDRESS 0x6020c0 TYPE MUTEX id 35 INVNO 1
WRITE THREADID 2 VARCLASS GLOBAL ADDRESS 0x6020a0 VARNAME counter VARID 101920288916 FUNCNAME _Z7trythisPv SYNCS 1 ADDRESS 0x6020c0 TYPE MUTEX id 36 INVNO 1
READ THREADID 2 VARCLASS GLOBAL ADDRESS 0x6020a0 VARNAME counter VARID 101920288916 FUNCNAME _Z7trythisPv SYNCS 1 ADDRESS 0x6020c0 TYPE MUTEX id 37 INVNO 1
CALL THREADID 2 CALLERNAME _Z7trythisPv CALLEENAME printf@plt id 38 ARGS NONE STATICCALL [	203482143471 printf ( "\n Job %d has started\n" , counter )	] INVNO 1
WRITE THREADID 2 VARCLASS LOCAL OFFSET 0x8 VARNAME i VARID 200922246609 FUNCNAME _Z7trythisPv SYNCS 1 ADDRESS 0x6020c0 TYPE MUTEX id 39 INVNO 1
READ THREADID 2 VARCLASS LOCAL OFFSET 0x8 VARNAME i VARID 200922246609 FUNCNAME _Z7trythisPv SYNCS 1 ADDRESS 0x6020c0 TYPE MUTEX id 40 INVNO 1
READ THREADID 2 VARCLASS LOCAL OFFSET 0x8 VARNAME i VARID 200922246609 FUNCNAME _Z7trythisPv SYNCS 1 ADDRESS 0x6020c0 TYPE MUTEX id 41 INVNO 1
READ THREADID 2 VARCLASS LOCAL OFFSET 0x8 VARNAME i VARID 200922246609 FUNCNAME _Z7trythisPv SYNCS 1 ADDRESS 0x6020c0 TYPE MUTEX id 42 INVNO 1
READ THREADID 2 VARCLASS LOCAL OFFSET 0x8 VARNAME i VARID 200922246609 FUNCNAME _Z7trythisPv SYNCS 1 ADDRESS 0x6020c0 TYPE MUTEX id 43 INVNO 1
READ THREADID 2 VARCLASS LOCAL OFFSET 0x8 VARNAME i VARID 200922246609 FUNCNAME _Z7trythisPv SYNCS 1 ADDRESS 0x6020c0 TYPE MUTEX id 44 INVNO 1
READ THREADID 2 VARCLASS LOCAL OFFSET 0x8 VARNAME i VARID 200922246609 FUNCNAME _Z7trythisPv SYNCS 1 ADDRESS 0x6020c0 TYPE MUTEX id 45 INVNO 1
READ THREADID 2 VARCLASS LOCAL OFFSET 0x8 VARNAME i VARID 200922246609 FUNCNAME _Z7trythisPv SYNCS 1 ADDRESS 0x6020c0 TYPE MUTEX id 46 INVNO 1
READ THREADID 2 VARCLASS LOCAL OFFSET 0x8 VARNAME i VARID 200922246609 FUNCNAME _Z7trythisPv SYNCS 1 ADDRESS 0x6020c0 TYPE MUTEX id 47 INVNO 1
READ THREADID 2 VARCLASS LOCAL OFFSET 0x8 VARNAME i VARID 200922246609 FUNCNAME _Z7trythisPv SYNCS 1 ADDRESS 0x6020c0 TYPE MUTEX id 48 INVNO 1
READ THREADID 2 VARCLASS LOCAL OFFSET 0x8 VARNAME i VARID 200922246609 FUNCNAME _Z7trythisPv SYNCS 1 ADDRESS 0x6020c0 TYPE MUTEX id 49 INVNO 1
READ THREADID 2 VARCLASS LOCAL OFFSET 0x8 VARNAME i VARID 200922246609 FUNCNAME _Z7trythisPv SYNCS 1 ADDRESS 0x6020c0 TYPE MUTEX id 50 INVNO 1
READ THREADID 2 VARCLASS LOCAL OFFSET 0x8 VARNAME i VARID 200922246609 FUNCNAME _Z7trythisPv SYNCS 1 ADDRESS 0x6020c0 TYPE MUTEX id 51 INVNO 1
READ THREADID 2 VARCLASS LOCAL OFFSET 0x8 VARNAME i VARID 200922246609 FUNCNAME _Z7trythisPv SYNCS 1 ADDRESS 0x6020c0 TYPE MUTEX id 52 INVNO 1
READ THREADID 2 VARCLASS LOCAL OFFSET 0x8 VARNAME i VARID 200922246609 FUNCNAME _Z7trythisPv SYNCS 1 ADDRESS 0x6020c0 TYPE MUTEX id 53 INVNO 1
READ THREADID 2 VARCLASS LOCAL OFFSET 0x8 VARNAME i VARID 200922246609 FUNCNAME _Z7trythisPv SYNCS 1 ADDRESS 0x6020c0 TYPE MUTEX id 54 INVNO 1
READ THREADID 2 VARCLASS LOCAL OFFSET 0x8 VARNAME i VARID 200922246609 FUNCNAME _Z7trythisPv SYNCS 1 ADDRESS 0x6020c0 TYPE MUTEX id 55 INVNO 1
READ THREADID 2 VARCLASS LOCAL OFFSET 0x8 VARNAME i VARID 200922246609 FUNCNAME _Z7trythisPv SYNCS 1 ADDRESS 0x6020c0 TYPE MUTEX id 56 INVNO 1
READ THREADID 2 VARCLASS LOCAL OFFSET 0x8 VARNAME i VARID 200922246609 FUNCNAME _Z7trythisPv SYNCS 1 ADDRESS 0x6020c0 TYPE MUTEX id 57 INVNO 1
READ THREADID 2 VARCLASS LOCAL OFFSET 0x8 VARNAME i VARID 200922246609 FUNCNAME _Z7trythisPv SYNCS 1 ADDRESS 0x6020c0 TYPE MUTEX id 58 INVNO 1
READ THREADID 2 VARCLASS LOCAL OFFSET 0x8 VARNAME i VARID 200922246609 FUNCNAME _Z7trythisPv SYNCS 1 ADDRESS 0x6020c0 TYPE MUTEX id 59 INVNO 1
READ THREADID 2 VARCLASS LOCAL OFFSET 0x8 VARNAME i VARID 200922246609 FUNCNAME _Z7trythisPv SYNCS 1 ADDRESS 0x6020c0 TYPE MUTEX id 60 INVNO 1
READ THREADID 2 VARCLASS GLOBAL ADDRESS 0x6020a0 VARNAME counter VARID 101920288916 FUNCNAME _Z7trythisPv SYNCS 1 ADDRESS 0x6020c0 TYPE MUTEX id 61 INVNO 1
CALL THREADID 2 CALLERNAME _Z7trythisPv CALLEENAME printf@plt id 62 ARGS NONE STATICCALL [	201612855891 printf ( "\n Job %d has finished\n" , counter )	] INVNO 1
CALL THREADID 2 CALLERNAME _Z7trythisPv CALLEENAME pthread_mutex_unlock@plt id 63 ARGS NONE STATICCALL [	200933062741 pthread_mutex_unlock ( & lock )	] INVNO 1
UNLOCK TID 2 ADDRESS 0x6020c0 TYPE MUTEX id 64
RETURN THREADID 2 FUNCNAME _Z7trythisPv id 65 RETVAL UNKNOWN INVNO 1
READ THREADID 1 VARCLASS LOCAL OFFSET 0x10 VARNAME r VARID 202477466354 FUNCNAME _Z7trythisPv SYNCS 1 ADDRESS 0x6020c0 TYPE MUTEX id 66 INVNO 1
READ THREADID 1 VARCLASS GLOBAL ADDRESS 0x6020a0 VARNAME counter VARID 101920288916 FUNCNAME _Z7trythisPv SYNCS 1 ADDRESS 0x6020c0 TYPE MUTEX id 67 INVNO 1
WRITE THREADID 1 VARCLASS GLOBAL ADDRESS 0x6020a0 VARNAME counter VARID 101920288916 FUNCNAME _Z7trythisPv SYNCS 1 ADDRESS 0x6020c0 TYPE MUTEX id 68 INVNO 1
READ THREADID 1 VARCLASS GLOBAL ADDRESS 0x6020a0 VARNAME counter VARID 101920288916 FUNCNAME _Z7trythisPv SYNCS 1 ADDRESS 0x6020c0 TYPE MUTEX id 69 INVNO 1
CALL THREADID 1 CALLERNAME _Z7trythisPv CALLEENAME printf@plt id 70 ARGS NONE STATICCALL [	203482143471 printf ( "\n Job %d has started\n" , counter )	] INVNO 1
WRITE THREADID 1 VARCLASS LOCAL OFFSET 0x8 VARNAME i VARID 200922246609 FUNCNAME _Z7trythisPv SYNCS 1 ADDRESS 0x6020c0 TYPE MUTEX id 71 INVNO 1
READ THREADID 1 VARCLASS LOCAL OFFSET 0x8 VARNAME i VARID 200922246609 FUNCNAME _Z7trythisPv SYNCS 1 ADDRESS 0x6020c0 TYPE MUTEX id 72 INVNO 1
READ THREADID 1 VARCLASS LOCAL OFFSET 0x8 VARNAME i VARID 200922246609 FUNCNAME _Z7trythisPv SYNCS 1 ADDRESS 0x6020c0 TYPE MUTEX id 73 INVNO 1
READ THREADID 1 VARCLASS LOCAL OFFSET 0x8 VARNAME i VARID 200922246609 FUNCNAME _Z7trythisPv SYNCS 1 ADDRESS 0x6020c0 TYPE MUTEX id 74 INVNO 1
READ THREADID 1 VARCLASS LOCAL OFFSET 0x8 VARNAME i VARID 200922246609 FUNCNAME _Z7trythisPv SYNCS 1 ADDRESS 0x6020c0 TYPE MUTEX id 75 INVNO 1
READ THREADID 1 VARCLASS LOCAL OFFSET 0x8 VARNAME i VARID 200922246609 FUNCNAME _Z7trythisPv SYNCS 1 ADDRESS 0x6020c0 TYPE MUTEX id 76 INVNO 1
READ THREADID 1 VARCLASS LOCAL OFFSET 0x8 VARNAME i VARID 200922246609 FUNCNAME _Z7trythisPv SYNCS 1 ADDRESS 0x6020c0 TYPE MUTEX id 77 INVNO 1
READ THREADID 1 VARCLASS LOCAL OFFSET 0x8 VARNAME i VARID 200922246609 FUNCNAME _Z7trythisPv SYNCS 1 ADDRESS 0x6020c0 TYPE MUTEX id 78 INVNO 1
READ THREADID 1 VARCLASS LOCAL OFFSET 0x8 VARNAME i VARID 200922246609 FUNCNAME _Z7trythisPv SYNCS 1 ADDRESS 0x6020c0 TYPE MUTEX id 79 INVNO 1
READ THREADID 1 VARCLASS LOCAL OFFSET 0x8 VARNAME i VARID 200922246609 FUNCNAME _Z7trythisPv SYNCS 1 ADDRESS 0x6020c0 TYPE MUTEX id 80 INVNO 1
READ THREADID 1 VARCLASS LOCAL OFFSET 0x8 VARNAME i VARID 200922246609 FUNCNAME _Z7trythisPv SYNCS 1 ADDRESS 0x6020c0 TYPE MUTEX id 81 INVNO 1
READ THREADID 1 VARCLASS LOCAL OFFSET 0x8 VARNAME i VARID 200922246609 FUNCNAME _Z7trythisPv SYNCS 1 ADDRESS 0x6020c0 TYPE MUTEX id 82 INVNO 1
READ THREADID 1 VARCLASS LOCAL OFFSET 0x8 VARNAME i VARID 200922246609 FUNCNAME _Z7trythisPv SYNCS 1 ADDRESS 0x6020c0 TYPE MUTEX id 83 INVNO 1
READ THREADID 1 VARCLASS LOCAL OFFSET 0x8 VARNAME i VARID 200922246609 FUNCNAME _Z7trythisPv SYNCS 1 ADDRESS 0x6020c0 TYPE MUTEX id 84 INVNO 1
READ THREADID 1 VARCLASS LOCAL OFFSET 0x8 VARNAME i VARID 200922246609 FUNCNAME _Z7trythisPv SYNCS 1 ADDRESS 0x6020c0 TYPE MUTEX id 85 INVNO 1
READ THREADID 1 VARCLASS LOCAL OFFSET 0x8 VARNAME i VARID 200922246609 FUNCNAME _Z7trythisPv SYNCS 1 ADDRESS 0x6020c0 TYPE MUTEX id 86 INVNO 1
READ THREADID 1 VARCLASS LOCAL OFFSET 0x8 VARNAME i VARID 200922246609 FUNCNAME _Z7trythisPv SYNCS 1 ADDRESS 0x6020c0 TYPE MUTEX id 87 INVNO 1
READ THREADID 1 VARCLASS LOCAL OFFSET 0x8 VARNAME i VARID 200922246609 FUNCNAME _Z7trythisPv SYNCS 1 ADDRESS 0x6020c0 TYPE MUTEX id 88 INVNO 1
READ THREADID 1 VARCLASS LOCAL OFFSET 0x8 VARNAME i VARID 200922246609 FUNCNAME _Z7trythisPv SYNCS 1 ADDRESS 0x6020c0 TYPE MUTEX id 89 INVNO 1
READ THREADID 1 VARCLASS LOCAL OFFSET 0x8 VARNAME i VARID 200922246609 FUNCNAME _Z7trythisPv SYNCS 1 ADDRESS 0x6020c0 TYPE MUTEX id 90 INVNO 1
READ THREADID 1 VARCLASS LOCAL OFFSET 0x8 VARNAME i VARID 200922246609 FUNCNAME _Z7trythisPv SYNCS 1 ADDRESS 0x6020c0 TYPE MUTEX id 91 INVNO 1
READ THREADID 1 VARCLASS LOCAL OFFSET 0x8 VARNAME i VARID 200922246609 FUNCNAME _Z7trythisPv SYNCS 1 ADDRESS 0x6020c0 TYPE MUTEX id 92 INVNO 1
READ THREADID 1 VARCLASS GLOBAL ADDRESS 0x6020a0 VARNAME counter VARID 101920288916 FUNCNAME _Z7trythisPv SYNCS 1 ADDRESS 0x6020c0 TYPE MUTEX id 93 INVNO 1
CALL THREADID 1 CALLERNAME _Z7trythisPv CALLEENAME printf@plt id 94 ARGS NONE STATICCALL [	201612855891 printf ( "\n Job %d has finished\n" , counter )	] INVNO 1
CALL THREADID 1 CALLERNAME _Z7trythisPv CALLEENAME pthread_mutex_unlock@plt id 95 ARGS NONE STATICCALL [	200933062741 pthread_mutex_unlock ( & lock )	] INVNO 1
UNLOCK TID 1 ADDRESS 0x6020c0 TYPE MUTEX id 96
RETURN THREADID 1 FUNCNAME _Z7trythisPv id 97 RETVAL UNKNOWN INVNO 1
CALL THREADID 0 CALLERNAME main CALLEENAME pthread_join@plt id 98 ARGS NONE STATICCALL [	102113619158 pthread_join ( tid [ 1 ] , NULL )	] INVNO 1
CALL THREADID 0 CALLERNAME main CALLEENAME pthread_mutex_destroy@plt id 99 ARGS NONE STATICCALL [	103021924989 pthread_mutex_destroy ( & lock )	] INVNO 1
RETURN THREADID 0 FUNCNAME main id 100 RETVAL 0 INVNO 1
