DYNAMICTRACE INP [None] RUNID 0_1 EXE copy
CALL THREADID 0 CALLERNAME _GLOBAL__sub_I__Z7Display7Complex CALLEENAME _Z41__static_initialization_and_destruction_0ii TS 0_1_1 ARGS NONE STATICCALL [	] INSLOC /data/user-home/srijoni/PIN_Tests/smartKT/testsuite/constructor_copy/copy.cpp:21 INVNO 1
RETURN THREADID 0 FUNCNAME _Z41__static_initialization_and_destruction_0ii TS 0_1_2 INSLOC /data/user-home/srijoni/PIN_Tests/smartKT/testsuite/constructor_copy/copy.cpp:21 INVNO 1
RETURN THREADID 0 FUNCNAME _GLOBAL__sub_I__Z7Display7Complex TS 0_1_3 INSLOC /data/user-home/srijoni/PIN_Tests/smartKT/testsuite/constructor_copy/copy.cpp:21 INVNO 1
CALL THREADID 0 CALLERNAME main CALLEENAME _ZN7ComplexC2Edd TS 0_1_4 ARGS NONE STATICCALL [	] INSLOC /data/user-home/srijoni/PIN_Tests/smartKT/testsuite/constructor_copy/copy.cpp:18 INVNO 1
CALL THREADID 0 CALLERNAME _ZN7ComplexC2Edd CALLEENAME _ZStlsISt11char_traitsIcEERSt13basic_ostreamIcT_ES5_PKc@plt TS 0_1_5 ARGS NONE STATICCALL [	100383704409 cout<< "ctor: "	] INSLOC /data/user-home/srijoni/PIN_Tests/smartKT/testsuite/constructor_copy/copy.cpp:7 INVNO 1
CALL THREADID 0 CALLERNAME _ZN7ComplexC2Edd CALLEENAME _ZN7Complex5printEv TS 0_1_6 ARG0 UNKNOWN STATICCALL [	100912622116 print( )	] INSLOC /data/user-home/srijoni/PIN_Tests/smartKT/testsuite/constructor_copy/copy.cpp:7 INVNO 1
CALL THREADID 0 CALLERNAME _ZN7Complex5printEv CALLEENAME _ZStlsISt11char_traitsIcEERSt13basic_ostreamIcT_ES5_PKc@plt TS 0_1_7 ARGS NONE STATICCALL [	100704237600 cout<< "|" << re_ << "+j"	103158533911 cout<< "|" << re_ << "+j" << im_ << "| = "	103999484503 cout<< "|"	] INSLOC /data/user-home/srijoni/PIN_Tests/smartKT/testsuite/constructor_copy/copy.cpp:12 INVNO 1
CALL THREADID 0 CALLERNAME _ZN7Complex5printEv CALLEENAME _ZNSolsEd@plt TS 0_1_8 ARGS NONE STATICCALL [	101954914826 cout<< "|" << re_	101992302384 cout<< "|" << re_ << "+j" << im_ << "| = " << norm ( )	104016184295 cout<< "|" << re_ << "+j" << im_	] INSLOC /data/user-home/srijoni/PIN_Tests/smartKT/testsuite/constructor_copy/copy.cpp:12 INVNO 1
CALL THREADID 0 CALLERNAME _ZN7Complex5printEv CALLEENAME _ZStlsISt11char_traitsIcEERSt13basic_ostreamIcT_ES5_PKc@plt TS 0_1_9 ARGS NONE STATICCALL [	100704237600 cout<< "|" << re_ << "+j"	103158533911 cout<< "|" << re_ << "+j" << im_ << "| = "	103999484503 cout<< "|"	] INSLOC /data/user-home/srijoni/PIN_Tests/smartKT/testsuite/constructor_copy/copy.cpp:12 INVNO 1
CALL THREADID 0 CALLERNAME _ZN7Complex5printEv CALLEENAME _ZNSolsEd@plt TS 0_1_10 ARGS NONE STATICCALL [	101954914826 cout<< "|" << re_	101992302384 cout<< "|" << re_ << "+j" << im_ << "| = " << norm ( )	104016184295 cout<< "|" << re_ << "+j" << im_	] INSLOC /data/user-home/srijoni/PIN_Tests/smartKT/testsuite/constructor_copy/copy.cpp:12 INVNO 1
CALL THREADID 0 CALLERNAME _ZN7Complex5printEv CALLEENAME _ZStlsISt11char_traitsIcEERSt13basic_ostreamIcT_ES5_PKc@plt TS 0_1_11 ARGS NONE STATICCALL [	100704237600 cout<< "|" << re_ << "+j"	103158533911 cout<< "|" << re_ << "+j" << im_ << "| = "	103999484503 cout<< "|"	] INSLOC /data/user-home/srijoni/PIN_Tests/smartKT/testsuite/constructor_copy/copy.cpp:12 INVNO 1
CALL THREADID 0 CALLERNAME _ZN7Complex5printEv CALLEENAME _ZN7Complex4normEv TS 0_1_12 ARG0 UNKNOWN STATICCALL [	104164557045 norm( )	] INSLOC /data/user-home/srijoni/PIN_Tests/smartKT/testsuite/constructor_copy/copy.cpp:12 INVNO 1
CALL THREADID 0 CALLERNAME _ZN7Complex4normEv CALLEENAME sqrt@plt TS 0_1_13 ARGS NONE STATICCALL [	100129737276 sqrt( re_ * re_ + im_ * im_ )	] INSLOC /data/user-home/srijoni/PIN_Tests/smartKT/testsuite/constructor_copy/copy.cpp:11 INVNO 1
RETURN THREADID 0 FUNCNAME _ZN7Complex4normEv TS 0_1_14 RETVAL 6.7624 INSLOC /data/user-home/srijoni/PIN_Tests/smartKT/testsuite/constructor_copy/copy.cpp:11 INVNO 1
CALL THREADID 0 CALLERNAME _ZN7Complex5printEv CALLEENAME _ZNSolsEd@plt TS 0_1_15 ARGS NONE STATICCALL [	101954914826 cout<< "|" << re_	101992302384 cout<< "|" << re_ << "+j" << im_ << "| = " << norm ( )	104016184295 cout<< "|" << re_ << "+j" << im_	] INSLOC /data/user-home/srijoni/PIN_Tests/smartKT/testsuite/constructor_copy/copy.cpp:12 INVNO 1
CALL THREADID 0 CALLERNAME _ZN7Complex5printEv CALLEENAME _ZNSolsEPFRSoS_E@plt TS 0_1_16 ARGS NONE STATICCALL [	104208438945 cout<< "|" << re_ << "+j" << im_ << "| = " << norm ( ) << endl	] INSLOC /data/user-home/srijoni/PIN_Tests/smartKT/testsuite/constructor_copy/copy.cpp:12 INVNO 1
RETURN THREADID 0 FUNCNAME _ZN7Complex5printEv TS 0_1_17 RETVAL void INSLOC /data/user-home/srijoni/PIN_Tests/smartKT/testsuite/constructor_copy/copy.cpp:12 INVNO 1
RETURN THREADID 0 FUNCNAME _ZN7ComplexC2Edd TS 0_1_18 INSLOC /data/user-home/srijoni/PIN_Tests/smartKT/testsuite/constructor_copy/copy.cpp:7 INVNO 1
CALL THREADID 0 CALLERNAME main CALLEENAME _ZN7ComplexC1ERKS_ TS 0_1_19 ARGS NONE STATICCALL [	100360359452 c	] INSLOC /data/user-home/srijoni/PIN_Tests/smartKT/testsuite/constructor_copy/copy.cpp:19 INVNO 1
CALL THREADID 0 CALLERNAME _ZN7ComplexC1ERKS_ CALLEENAME _ZStlsISt11char_traitsIcEERSt13basic_ostreamIcT_ES5_PKc@plt TS 0_1_20 ARGS NONE STATICCALL [	102386715376 cout<< "copy ctor: "	] INSLOC /data/user-home/srijoni/PIN_Tests/smartKT/testsuite/constructor_copy/copy.cpp:9 INVNO 1
CALL THREADID 0 CALLERNAME _ZN7ComplexC1ERKS_ CALLEENAME _ZN7Complex5printEv TS 0_1_21 ARG0 UNKNOWN STATICCALL [	101604956322 print( )	] INSLOC /data/user-home/srijoni/PIN_Tests/smartKT/testsuite/constructor_copy/copy.cpp:9 INVNO 1
CALL THREADID 0 CALLERNAME _ZN7Complex5printEv CALLEENAME _ZStlsISt11char_traitsIcEERSt13basic_ostreamIcT_ES5_PKc@plt TS 0_1_22 ARGS NONE STATICCALL [	100704237600 cout<< "|" << re_ << "+j"	103158533911 cout<< "|" << re_ << "+j" << im_ << "| = "	103999484503 cout<< "|"	] INSLOC /data/user-home/srijoni/PIN_Tests/smartKT/testsuite/constructor_copy/copy.cpp:12 INVNO 2
CALL THREADID 0 CALLERNAME _ZN7Complex5printEv CALLEENAME _ZNSolsEd@plt TS 0_1_23 ARGS NONE STATICCALL [	101954914826 cout<< "|" << re_	101992302384 cout<< "|" << re_ << "+j" << im_ << "| = " << norm ( )	104016184295 cout<< "|" << re_ << "+j" << im_	] INSLOC /data/user-home/srijoni/PIN_Tests/smartKT/testsuite/constructor_copy/copy.cpp:12 INVNO 2
CALL THREADID 0 CALLERNAME _ZN7Complex5printEv CALLEENAME _ZStlsISt11char_traitsIcEERSt13basic_ostreamIcT_ES5_PKc@plt TS 0_1_24 ARGS NONE STATICCALL [	100704237600 cout<< "|" << re_ << "+j"	103158533911 cout<< "|" << re_ << "+j" << im_ << "| = "	103999484503 cout<< "|"	] INSLOC /data/user-home/srijoni/PIN_Tests/smartKT/testsuite/constructor_copy/copy.cpp:12 INVNO 2
CALL THREADID 0 CALLERNAME _ZN7Complex5printEv CALLEENAME _ZNSolsEd@plt TS 0_1_25 ARGS NONE STATICCALL [	101954914826 cout<< "|" << re_	101992302384 cout<< "|" << re_ << "+j" << im_ << "| = " << norm ( )	104016184295 cout<< "|" << re_ << "+j" << im_	] INSLOC /data/user-home/srijoni/PIN_Tests/smartKT/testsuite/constructor_copy/copy.cpp:12 INVNO 2
CALL THREADID 0 CALLERNAME _ZN7Complex5printEv CALLEENAME _ZStlsISt11char_traitsIcEERSt13basic_ostreamIcT_ES5_PKc@plt TS 0_1_26 ARGS NONE STATICCALL [	100704237600 cout<< "|" << re_ << "+j"	103158533911 cout<< "|" << re_ << "+j" << im_ << "| = "	103999484503 cout<< "|"	] INSLOC /data/user-home/srijoni/PIN_Tests/smartKT/testsuite/constructor_copy/copy.cpp:12 INVNO 2
CALL THREADID 0 CALLERNAME _ZN7Complex5printEv CALLEENAME _ZN7Complex4normEv TS 0_1_27 ARG0 UNKNOWN STATICCALL [	104164557045 norm( )	] INSLOC /data/user-home/srijoni/PIN_Tests/smartKT/testsuite/constructor_copy/copy.cpp:12 INVNO 2
CALL THREADID 0 CALLERNAME _ZN7Complex4normEv CALLEENAME sqrt@plt TS 0_1_28 ARGS NONE STATICCALL [	100129737276 sqrt( re_ * re_ + im_ * im_ )	] INSLOC /data/user-home/srijoni/PIN_Tests/smartKT/testsuite/constructor_copy/copy.cpp:11 INVNO 2
RETURN THREADID 0 FUNCNAME _ZN7Complex4normEv TS 0_1_29 RETVAL 6.7624 INSLOC /data/user-home/srijoni/PIN_Tests/smartKT/testsuite/constructor_copy/copy.cpp:11 INVNO 2
CALL THREADID 0 CALLERNAME _ZN7Complex5printEv CALLEENAME _ZNSolsEd@plt TS 0_1_30 ARGS NONE STATICCALL [	101954914826 cout<< "|" << re_	101992302384 cout<< "|" << re_ << "+j" << im_ << "| = " << norm ( )	104016184295 cout<< "|" << re_ << "+j" << im_	] INSLOC /data/user-home/srijoni/PIN_Tests/smartKT/testsuite/constructor_copy/copy.cpp:12 INVNO 2
CALL THREADID 0 CALLERNAME _ZN7Complex5printEv CALLEENAME _ZNSolsEPFRSoS_E@plt TS 0_1_31 ARGS NONE STATICCALL [	104208438945 cout<< "|" << re_ << "+j" << im_ << "| = " << norm ( ) << endl	] INSLOC /data/user-home/srijoni/PIN_Tests/smartKT/testsuite/constructor_copy/copy.cpp:12 INVNO 2
RETURN THREADID 0 FUNCNAME _ZN7Complex5printEv TS 0_1_32 RETVAL void INSLOC /data/user-home/srijoni/PIN_Tests/smartKT/testsuite/constructor_copy/copy.cpp:12 INVNO 2
RETURN THREADID 0 FUNCNAME _ZN7ComplexC1ERKS_ TS 0_1_33 INSLOC /data/user-home/srijoni/PIN_Tests/smartKT/testsuite/constructor_copy/copy.cpp:9 INVNO 1
CALL THREADID 0 CALLERNAME main CALLEENAME _Z7Display7Complex TS 0_1_34 ARG0 UNKNOWN STATICCALL [	102064173829 Display( c )	] INSLOC /data/user-home/srijoni/PIN_Tests/smartKT/testsuite/constructor_copy/copy.cpp:19 INVNO 1
CALL THREADID 0 CALLERNAME _Z7Display7Complex CALLEENAME _ZStlsISt11char_traitsIcEERSt13basic_ostreamIcT_ES5_PKc@plt TS 0_1_35 ARGS NONE STATICCALL [	100663982479 cout<< "Display: "	] INSLOC /data/user-home/srijoni/PIN_Tests/smartKT/testsuite/constructor_copy/copy.cpp:15 INVNO 1
CALL THREADID 0 CALLERNAME _Z7Display7Complex CALLEENAME _ZN7Complex5printEv TS 0_1_36 ARG0 UNKNOWN STATICCALL [	102355997549 c_param. print ( )	] INSLOC /data/user-home/srijoni/PIN_Tests/smartKT/testsuite/constructor_copy/copy.cpp:15 INVNO 1
CALL THREADID 0 CALLERNAME _ZN7Complex5printEv CALLEENAME _ZStlsISt11char_traitsIcEERSt13basic_ostreamIcT_ES5_PKc@plt TS 0_1_37 ARGS NONE STATICCALL [	100704237600 cout<< "|" << re_ << "+j"	103158533911 cout<< "|" << re_ << "+j" << im_ << "| = "	103999484503 cout<< "|"	] INSLOC /data/user-home/srijoni/PIN_Tests/smartKT/testsuite/constructor_copy/copy.cpp:12 INVNO 3
CALL THREADID 0 CALLERNAME _ZN7Complex5printEv CALLEENAME _ZNSolsEd@plt TS 0_1_38 ARGS NONE STATICCALL [	101954914826 cout<< "|" << re_	101992302384 cout<< "|" << re_ << "+j" << im_ << "| = " << norm ( )	104016184295 cout<< "|" << re_ << "+j" << im_	] INSLOC /data/user-home/srijoni/PIN_Tests/smartKT/testsuite/constructor_copy/copy.cpp:12 INVNO 3
CALL THREADID 0 CALLERNAME _ZN7Complex5printEv CALLEENAME _ZStlsISt11char_traitsIcEERSt13basic_ostreamIcT_ES5_PKc@plt TS 0_1_39 ARGS NONE STATICCALL [	100704237600 cout<< "|" << re_ << "+j"	103158533911 cout<< "|" << re_ << "+j" << im_ << "| = "	103999484503 cout<< "|"	] INSLOC /data/user-home/srijoni/PIN_Tests/smartKT/testsuite/constructor_copy/copy.cpp:12 INVNO 3
CALL THREADID 0 CALLERNAME _ZN7Complex5printEv CALLEENAME _ZNSolsEd@plt TS 0_1_40 ARGS NONE STATICCALL [	101954914826 cout<< "|" << re_	101992302384 cout<< "|" << re_ << "+j" << im_ << "| = " << norm ( )	104016184295 cout<< "|" << re_ << "+j" << im_	] INSLOC /data/user-home/srijoni/PIN_Tests/smartKT/testsuite/constructor_copy/copy.cpp:12 INVNO 3
CALL THREADID 0 CALLERNAME _ZN7Complex5printEv CALLEENAME _ZStlsISt11char_traitsIcEERSt13basic_ostreamIcT_ES5_PKc@plt TS 0_1_41 ARGS NONE STATICCALL [	100704237600 cout<< "|" << re_ << "+j"	103158533911 cout<< "|" << re_ << "+j" << im_ << "| = "	103999484503 cout<< "|"	] INSLOC /data/user-home/srijoni/PIN_Tests/smartKT/testsuite/constructor_copy/copy.cpp:12 INVNO 3
CALL THREADID 0 CALLERNAME _ZN7Complex5printEv CALLEENAME _ZN7Complex4normEv TS 0_1_42 ARG0 UNKNOWN STATICCALL [	104164557045 norm( )	] INSLOC /data/user-home/srijoni/PIN_Tests/smartKT/testsuite/constructor_copy/copy.cpp:12 INVNO 3
CALL THREADID 0 CALLERNAME _ZN7Complex4normEv CALLEENAME sqrt@plt TS 0_1_43 ARGS NONE STATICCALL [	100129737276 sqrt( re_ * re_ + im_ * im_ )	] INSLOC /data/user-home/srijoni/PIN_Tests/smartKT/testsuite/constructor_copy/copy.cpp:11 INVNO 3
RETURN THREADID 0 FUNCNAME _ZN7Complex4normEv TS 0_1_44 RETVAL 6.7624 INSLOC /data/user-home/srijoni/PIN_Tests/smartKT/testsuite/constructor_copy/copy.cpp:11 INVNO 3
CALL THREADID 0 CALLERNAME _ZN7Complex5printEv CALLEENAME _ZNSolsEd@plt TS 0_1_45 ARGS NONE STATICCALL [	101954914826 cout<< "|" << re_	101992302384 cout<< "|" << re_ << "+j" << im_ << "| = " << norm ( )	104016184295 cout<< "|" << re_ << "+j" << im_	] INSLOC /data/user-home/srijoni/PIN_Tests/smartKT/testsuite/constructor_copy/copy.cpp:12 INVNO 3
CALL THREADID 0 CALLERNAME _ZN7Complex5printEv CALLEENAME _ZNSolsEPFRSoS_E@plt TS 0_1_46 ARGS NONE STATICCALL [	104208438945 cout<< "|" << re_ << "+j" << im_ << "| = " << norm ( ) << endl	] INSLOC /data/user-home/srijoni/PIN_Tests/smartKT/testsuite/constructor_copy/copy.cpp:12 INVNO 3
RETURN THREADID 0 FUNCNAME _ZN7Complex5printEv TS 0_1_47 RETVAL void INSLOC /data/user-home/srijoni/PIN_Tests/smartKT/testsuite/constructor_copy/copy.cpp:12 INVNO 3
RETURN THREADID 0 FUNCNAME _Z7Display7Complex TS 0_1_48 RETVAL void INSLOC /data/user-home/srijoni/PIN_Tests/smartKT/testsuite/constructor_copy/copy.cpp:16 INVNO 1
CALL THREADID 0 CALLERNAME main CALLEENAME _ZN7ComplexD1Ev TS 0_1_49 ARGS NONE STATICCALL [	] INSLOC /data/user-home/srijoni/PIN_Tests/smartKT/testsuite/constructor_copy/copy.cpp:19 INVNO 1
CALL THREADID 0 CALLERNAME _ZN7ComplexD1Ev CALLEENAME _ZStlsISt11char_traitsIcEERSt13basic_ostreamIcT_ES5_PKc@plt TS 0_1_50 ARGS NONE STATICCALL [	101493216246 cout<< "dtor: "	] INSLOC /data/user-home/srijoni/PIN_Tests/smartKT/testsuite/constructor_copy/copy.cpp:10 INVNO 1
CALL THREADID 0 CALLERNAME _ZN7ComplexD1Ev CALLEENAME _ZN7Complex5printEv TS 0_1_51 ARG0 UNKNOWN STATICCALL [	102981152551 print( )	] INSLOC /data/user-home/srijoni/PIN_Tests/smartKT/testsuite/constructor_copy/copy.cpp:10 INVNO 1
CALL THREADID 0 CALLERNAME _ZN7Complex5printEv CALLEENAME _ZStlsISt11char_traitsIcEERSt13basic_ostreamIcT_ES5_PKc@plt TS 0_1_52 ARGS NONE STATICCALL [	100704237600 cout<< "|" << re_ << "+j"	103158533911 cout<< "|" << re_ << "+j" << im_ << "| = "	103999484503 cout<< "|"	] INSLOC /data/user-home/srijoni/PIN_Tests/smartKT/testsuite/constructor_copy/copy.cpp:12 INVNO 4
CALL THREADID 0 CALLERNAME _ZN7Complex5printEv CALLEENAME _ZNSolsEd@plt TS 0_1_53 ARGS NONE STATICCALL [	101954914826 cout<< "|" << re_	101992302384 cout<< "|" << re_ << "+j" << im_ << "| = " << norm ( )	104016184295 cout<< "|" << re_ << "+j" << im_	] INSLOC /data/user-home/srijoni/PIN_Tests/smartKT/testsuite/constructor_copy/copy.cpp:12 INVNO 4
CALL THREADID 0 CALLERNAME _ZN7Complex5printEv CALLEENAME _ZStlsISt11char_traitsIcEERSt13basic_ostreamIcT_ES5_PKc@plt TS 0_1_54 ARGS NONE STATICCALL [	100704237600 cout<< "|" << re_ << "+j"	103158533911 cout<< "|" << re_ << "+j" << im_ << "| = "	103999484503 cout<< "|"	] INSLOC /data/user-home/srijoni/PIN_Tests/smartKT/testsuite/constructor_copy/copy.cpp:12 INVNO 4
CALL THREADID 0 CALLERNAME _ZN7Complex5printEv CALLEENAME _ZNSolsEd@plt TS 0_1_55 ARGS NONE STATICCALL [	101954914826 cout<< "|" << re_	101992302384 cout<< "|" << re_ << "+j" << im_ << "| = " << norm ( )	104016184295 cout<< "|" << re_ << "+j" << im_	] INSLOC /data/user-home/srijoni/PIN_Tests/smartKT/testsuite/constructor_copy/copy.cpp:12 INVNO 4
CALL THREADID 0 CALLERNAME _ZN7Complex5printEv CALLEENAME _ZStlsISt11char_traitsIcEERSt13basic_ostreamIcT_ES5_PKc@plt TS 0_1_56 ARGS NONE STATICCALL [	100704237600 cout<< "|" << re_ << "+j"	103158533911 cout<< "|" << re_ << "+j" << im_ << "| = "	103999484503 cout<< "|"	] INSLOC /data/user-home/srijoni/PIN_Tests/smartKT/testsuite/constructor_copy/copy.cpp:12 INVNO 4
CALL THREADID 0 CALLERNAME _ZN7Complex5printEv CALLEENAME _ZN7Complex4normEv TS 0_1_57 ARG0 UNKNOWN STATICCALL [	104164557045 norm( )	] INSLOC /data/user-home/srijoni/PIN_Tests/smartKT/testsuite/constructor_copy/copy.cpp:12 INVNO 4
CALL THREADID 0 CALLERNAME _ZN7Complex4normEv CALLEENAME sqrt@plt TS 0_1_58 ARGS NONE STATICCALL [	100129737276 sqrt( re_ * re_ + im_ * im_ )	] INSLOC /data/user-home/srijoni/PIN_Tests/smartKT/testsuite/constructor_copy/copy.cpp:11 INVNO 4
RETURN THREADID 0 FUNCNAME _ZN7Complex4normEv TS 0_1_59 RETVAL 6.7624 INSLOC /data/user-home/srijoni/PIN_Tests/smartKT/testsuite/constructor_copy/copy.cpp:11 INVNO 4
CALL THREADID 0 CALLERNAME _ZN7Complex5printEv CALLEENAME _ZNSolsEd@plt TS 0_1_60 ARGS NONE STATICCALL [	101954914826 cout<< "|" << re_	101992302384 cout<< "|" << re_ << "+j" << im_ << "| = " << norm ( )	104016184295 cout<< "|" << re_ << "+j" << im_	] INSLOC /data/user-home/srijoni/PIN_Tests/smartKT/testsuite/constructor_copy/copy.cpp:12 INVNO 4
CALL THREADID 0 CALLERNAME _ZN7Complex5printEv CALLEENAME _ZNSolsEPFRSoS_E@plt TS 0_1_61 ARGS NONE STATICCALL [	104208438945 cout<< "|" << re_ << "+j" << im_ << "| = " << norm ( ) << endl	] INSLOC /data/user-home/srijoni/PIN_Tests/smartKT/testsuite/constructor_copy/copy.cpp:12 INVNO 4
RETURN THREADID 0 FUNCNAME _ZN7Complex5printEv TS 0_1_62 RETVAL void INSLOC /data/user-home/srijoni/PIN_Tests/smartKT/testsuite/constructor_copy/copy.cpp:12 INVNO 4
RETURN THREADID 0 FUNCNAME _ZN7ComplexD1Ev TS 0_1_63 INSLOC /data/user-home/srijoni/PIN_Tests/smartKT/testsuite/constructor_copy/copy.cpp:10 INVNO 1
CALL THREADID 0 CALLERNAME main CALLEENAME _ZN7ComplexD1Ev TS 0_1_64 ARGS NONE STATICCALL [	] INSLOC /data/user-home/srijoni/PIN_Tests/smartKT/testsuite/constructor_copy/copy.cpp:18 INVNO 1
CALL THREADID 0 CALLERNAME _ZN7ComplexD1Ev CALLEENAME _ZStlsISt11char_traitsIcEERSt13basic_ostreamIcT_ES5_PKc@plt TS 0_1_65 ARGS NONE STATICCALL [	101493216246 cout<< "dtor: "	] INSLOC /data/user-home/srijoni/PIN_Tests/smartKT/testsuite/constructor_copy/copy.cpp:10 INVNO 2
CALL THREADID 0 CALLERNAME _ZN7ComplexD1Ev CALLEENAME _ZN7Complex5printEv TS 0_1_66 ARG0 UNKNOWN STATICCALL [	102981152551 print( )	] INSLOC /data/user-home/srijoni/PIN_Tests/smartKT/testsuite/constructor_copy/copy.cpp:10 INVNO 2
CALL THREADID 0 CALLERNAME _ZN7Complex5printEv CALLEENAME _ZStlsISt11char_traitsIcEERSt13basic_ostreamIcT_ES5_PKc@plt TS 0_1_67 ARGS NONE STATICCALL [	100704237600 cout<< "|" << re_ << "+j"	103158533911 cout<< "|" << re_ << "+j" << im_ << "| = "	103999484503 cout<< "|"	] INSLOC /data/user-home/srijoni/PIN_Tests/smartKT/testsuite/constructor_copy/copy.cpp:12 INVNO 5
CALL THREADID 0 CALLERNAME _ZN7Complex5printEv CALLEENAME _ZNSolsEd@plt TS 0_1_68 ARGS NONE STATICCALL [	101954914826 cout<< "|" << re_	101992302384 cout<< "|" << re_ << "+j" << im_ << "| = " << norm ( )	104016184295 cout<< "|" << re_ << "+j" << im_	] INSLOC /data/user-home/srijoni/PIN_Tests/smartKT/testsuite/constructor_copy/copy.cpp:12 INVNO 5
CALL THREADID 0 CALLERNAME _ZN7Complex5printEv CALLEENAME _ZStlsISt11char_traitsIcEERSt13basic_ostreamIcT_ES5_PKc@plt TS 0_1_69 ARGS NONE STATICCALL [	100704237600 cout<< "|" << re_ << "+j"	103158533911 cout<< "|" << re_ << "+j" << im_ << "| = "	103999484503 cout<< "|"	] INSLOC /data/user-home/srijoni/PIN_Tests/smartKT/testsuite/constructor_copy/copy.cpp:12 INVNO 5
CALL THREADID 0 CALLERNAME _ZN7Complex5printEv CALLEENAME _ZNSolsEd@plt TS 0_1_70 ARGS NONE STATICCALL [	101954914826 cout<< "|" << re_	101992302384 cout<< "|" << re_ << "+j" << im_ << "| = " << norm ( )	104016184295 cout<< "|" << re_ << "+j" << im_	] INSLOC /data/user-home/srijoni/PIN_Tests/smartKT/testsuite/constructor_copy/copy.cpp:12 INVNO 5
CALL THREADID 0 CALLERNAME _ZN7Complex5printEv CALLEENAME _ZStlsISt11char_traitsIcEERSt13basic_ostreamIcT_ES5_PKc@plt TS 0_1_71 ARGS NONE STATICCALL [	100704237600 cout<< "|" << re_ << "+j"	103158533911 cout<< "|" << re_ << "+j" << im_ << "| = "	103999484503 cout<< "|"	] INSLOC /data/user-home/srijoni/PIN_Tests/smartKT/testsuite/constructor_copy/copy.cpp:12 INVNO 5
CALL THREADID 0 CALLERNAME _ZN7Complex5printEv CALLEENAME _ZN7Complex4normEv TS 0_1_72 ARG0 UNKNOWN STATICCALL [	104164557045 norm( )	] INSLOC /data/user-home/srijoni/PIN_Tests/smartKT/testsuite/constructor_copy/copy.cpp:12 INVNO 5
CALL THREADID 0 CALLERNAME _ZN7Complex4normEv CALLEENAME sqrt@plt TS 0_1_73 ARGS NONE STATICCALL [	100129737276 sqrt( re_ * re_ + im_ * im_ )	] INSLOC /data/user-home/srijoni/PIN_Tests/smartKT/testsuite/constructor_copy/copy.cpp:11 INVNO 5
RETURN THREADID 0 FUNCNAME _ZN7Complex4normEv TS 0_1_74 RETVAL 6.7624 INSLOC /data/user-home/srijoni/PIN_Tests/smartKT/testsuite/constructor_copy/copy.cpp:11 INVNO 5
CALL THREADID 0 CALLERNAME _ZN7Complex5printEv CALLEENAME _ZNSolsEd@plt TS 0_1_75 ARGS NONE STATICCALL [	101954914826 cout<< "|" << re_	101992302384 cout<< "|" << re_ << "+j" << im_ << "| = " << norm ( )	104016184295 cout<< "|" << re_ << "+j" << im_	] INSLOC /data/user-home/srijoni/PIN_Tests/smartKT/testsuite/constructor_copy/copy.cpp:12 INVNO 5
CALL THREADID 0 CALLERNAME _ZN7Complex5printEv CALLEENAME _ZNSolsEPFRSoS_E@plt TS 0_1_76 ARGS NONE STATICCALL [	104208438945 cout<< "|" << re_ << "+j" << im_ << "| = " << norm ( ) << endl	] INSLOC /data/user-home/srijoni/PIN_Tests/smartKT/testsuite/constructor_copy/copy.cpp:12 INVNO 5
RETURN THREADID 0 FUNCNAME _ZN7Complex5printEv TS 0_1_77 RETVAL void INSLOC /data/user-home/srijoni/PIN_Tests/smartKT/testsuite/constructor_copy/copy.cpp:12 INVNO 5
RETURN THREADID 0 FUNCNAME _ZN7ComplexD1Ev TS 0_1_78 INSLOC /data/user-home/srijoni/PIN_Tests/smartKT/testsuite/constructor_copy/copy.cpp:10 INVNO 2
RETURN THREADID 0 FUNCNAME main TS 0_1_79 RETVAL 0 INSLOC /data/user-home/srijoni/PIN_Tests/smartKT/testsuite/constructor_copy/copy.cpp:21 INVNO 1
