DYNAMICTRACE INP [None] RUNID 0_1 EXE sct
WRITE THREADID 0 FUNCNAME main FUNCNODEID 200954073876 INVNO 1 SYNCS ASYNC VARNAME i VARID 203817833550 VARCLASS LOCAL VAROFFSET 0x14 INSLOC /data/user-home/srijoni/spandan/MTPSMARTKT/graphSMKT/smartKT/projects/SimplComprTest/src/main.cpp:17 TS 0_1_1
CALL THREADID 0  CALLERNAME main CALLERNODEID 200954073876 CALLEENAME _ZN6CircleC2Ev CALLEENODEID 202469467868 INVNO 1 ARGS NONE STATICCALL [	] INSLOC /data/user-home/srijoni/spandan/MTPSMARTKT/graphSMKT/smartKT/projects/SimplComprTest/src/main.cpp:18 TS 0_1_2
CALL THREADID 0  CALLERNAME _ZN6CircleC2Ev CALLERNODEID 202469467868 CALLEENAME _ZN4BaseC1Ev CALLEENODEID 203250240560 INVNO 1 ARGS NONE STATICCALL [	] INSLOC /data/user-home/srijoni/spandan/MTPSMARTKT/graphSMKT/smartKT/projects/SimplComprTest/lib/foo.h:41 TS 0_1_3
CALL THREADID 0  CALLERNAME _ZN4BaseC1Ev CALLERNODEID 203250240560 CALLEENAME _ZN5PointC2Ev CALLEENODEID 201948060917 INVNO 1 ARGS NONE STATICCALL [	] INSLOC /data/user-home/srijoni/spandan/MTPSMARTKT/graphSMKT/smartKT/projects/SimplComprTest/lib/foo.h:19 TS 0_1_4
RETURN THREADID 0 FUNCNAME _ZN5PointC2Ev FUNCNODEID 201948060917 INVNO 1 RETVAL UNKNOWN INSLOC /data/user-home/srijoni/spandan/MTPSMARTKT/graphSMKT/smartKT/projects/SimplComprTest/lib/foo.h:8 TS 0_1_5
READ THREADID 0 FUNCNAME _ZN4BaseC1Ev FUNCNODEID 203250240560 INVNO 1 SYNCS ASYNC VARNAME _ZN4Base5countE VARID 201233933708 VARCLASS CLASSSTATIC VARADDRESS 0x6020b4 VARCONTAINERNAME Base VARCONTAINERNODEID 200974653263 INSLOC /data/user-home/srijoni/spandan/MTPSMARTKT/graphSMKT/smartKT/projects/SimplComprTest/lib/foo.h:20 TS 0_1_6
WRITE THREADID 0 FUNCNAME _ZN4BaseC1Ev FUNCNODEID 203250240560 INVNO 1 SYNCS ASYNC VARNAME _ZN4Base5countE VARID 201233933708 VARCLASS CLASSSTATIC VARADDRESS 0x6020b4 VARCONTAINERNAME Base VARCONTAINERNODEID 200974653263 INSLOC /data/user-home/srijoni/spandan/MTPSMARTKT/graphSMKT/smartKT/projects/SimplComprTest/lib/foo.h:20 TS 0_1_7
RETURN THREADID 0 FUNCNAME _ZN4BaseC1Ev FUNCNODEID 203250240560 INVNO 1 RETVAL UNKNOWN INSLOC /data/user-home/srijoni/spandan/MTPSMARTKT/graphSMKT/smartKT/projects/SimplComprTest/lib/foo.h:21 TS 0_1_8
RETURN THREADID 0 FUNCNAME _ZN6CircleC2Ev FUNCNODEID 202469467868 INVNO 1 RETVAL UNKNOWN INSLOC /data/user-home/srijoni/spandan/MTPSMARTKT/graphSMKT/smartKT/projects/SimplComprTest/lib/foo.h:41 TS 0_1_9
CALL THREADID 0  CALLERNAME main CALLERNODEID 200954073876 CALLEENAME _ZN6SquareC1Ev CALLEENODEID 203639874650 INVNO 1 ARGS NONE STATICCALL [	201501969520 s	] INSLOC /data/user-home/srijoni/spandan/MTPSMARTKT/graphSMKT/smartKT/projects/SimplComprTest/src/main.cpp:19 TS 0_1_10
CALL THREADID 0  CALLERNAME _ZN6SquareC1Ev CALLERNODEID 203639874650 CALLEENAME _ZN4BaseC1Ev CALLEENODEID 203250240560 INVNO 1 ARGS NONE STATICCALL [	] INSLOC /data/user-home/srijoni/spandan/MTPSMARTKT/graphSMKT/smartKT/projects/SimplComprTest/lib/foo.h:34 TS 0_1_11
CALL THREADID 0  CALLERNAME _ZN4BaseC1Ev CALLERNODEID 203250240560 CALLEENAME _ZN5PointC2Ev CALLEENODEID 201948060917 INVNO 2 ARGS NONE STATICCALL [	] INSLOC /data/user-home/srijoni/spandan/MTPSMARTKT/graphSMKT/smartKT/projects/SimplComprTest/lib/foo.h:19 TS 0_1_12
RETURN THREADID 0 FUNCNAME _ZN5PointC2Ev FUNCNODEID 201948060917 INVNO 2 RETVAL UNKNOWN INSLOC /data/user-home/srijoni/spandan/MTPSMARTKT/graphSMKT/smartKT/projects/SimplComprTest/lib/foo.h:8 TS 0_1_13
READ THREADID 0 FUNCNAME _ZN4BaseC1Ev FUNCNODEID 203250240560 INVNO 2 SYNCS ASYNC VARNAME _ZN4Base5countE VARID 201233933708 VARCLASS CLASSSTATIC VARADDRESS 0x6020b4 VARCONTAINERNAME Base VARCONTAINERNODEID 200974653263 INSLOC /data/user-home/srijoni/spandan/MTPSMARTKT/graphSMKT/smartKT/projects/SimplComprTest/lib/foo.h:20 TS 0_1_14
WRITE THREADID 0 FUNCNAME _ZN4BaseC1Ev FUNCNODEID 203250240560 INVNO 2 SYNCS ASYNC VARNAME _ZN4Base5countE VARID 201233933708 VARCLASS CLASSSTATIC VARADDRESS 0x6020b4 VARCONTAINERNAME Base VARCONTAINERNODEID 200974653263 INSLOC /data/user-home/srijoni/spandan/MTPSMARTKT/graphSMKT/smartKT/projects/SimplComprTest/lib/foo.h:20 TS 0_1_15
RETURN THREADID 0 FUNCNAME _ZN4BaseC1Ev FUNCNODEID 203250240560 INVNO 2 RETVAL UNKNOWN INSLOC /data/user-home/srijoni/spandan/MTPSMARTKT/graphSMKT/smartKT/projects/SimplComprTest/lib/foo.h:21 TS 0_1_16
RETURN THREADID 0 FUNCNAME _ZN6SquareC1Ev FUNCNODEID 203639874650 INVNO 1 RETVAL UNKNOWN INSLOC /data/user-home/srijoni/spandan/MTPSMARTKT/graphSMKT/smartKT/projects/SimplComprTest/lib/foo.h:34 TS 0_1_17
CALL THREADID 0  CALLERNAME main CALLERNODEID 200954073876 CALLEENAME _ZN5PointC2Eii CALLEENODEID 200140975045 INVNO 1 ARG0 UNKNOWN ARG1 0 STATICCALL [	] INSLOC /data/user-home/srijoni/spandan/MTPSMARTKT/graphSMKT/smartKT/projects/SimplComprTest/src/main.cpp:20 TS 0_1_18
WRITE THREADID 0 FUNCNAME _ZN5PointC2Eii FUNCNODEID 200140975045 INVNO 1 SYNCS ASYNC VARNAME p VARID 201191999428 VARCLASS NONLOCALSTACK VAROFFSET 0x4c VARFUNCNAME main VARFUNCNODEID 200954073876 VARFUNCTID 0 VARFUNCINVNO 1 INSLOC /data/user-home/srijoni/spandan/MTPSMARTKT/graphSMKT/smartKT/projects/SimplComprTest/lib/foo.h:7 TS 0_1_19
WRITE THREADID 0 FUNCNAME _ZN5PointC2Eii FUNCNODEID 200140975045 INVNO 1 SYNCS ASYNC VARNAME p VARID 201191999428 VARCLASS NONLOCALSTACK VAROFFSET 0x48 VARFUNCNAME main VARFUNCNODEID 200954073876 VARFUNCTID 0 VARFUNCINVNO 1 INSLOC /data/user-home/srijoni/spandan/MTPSMARTKT/graphSMKT/smartKT/projects/SimplComprTest/lib/foo.h:7 TS 0_1_20
RETURN THREADID 0 FUNCNAME _ZN5PointC2Eii FUNCNODEID 200140975045 INVNO 1 RETVAL void INSLOC /data/user-home/srijoni/spandan/MTPSMARTKT/graphSMKT/smartKT/projects/SimplComprTest/lib/foo.h:7 TS 0_1_21
CALL THREADID 0  CALLERNAME main CALLERNODEID 200954073876 CALLEENAME _ZN4Base8getCountEv CALLEENODEID 200545039082 INVNO 1 ARGS NONE STATICCALL [	201751330820 Base:: getCount ( )	] INSLOC /data/user-home/srijoni/spandan/MTPSMARTKT/graphSMKT/smartKT/projects/SimplComprTest/src/main.cpp:21 TS 0_1_22
READ THREADID 0 FUNCNAME _ZN4Base8getCountEv FUNCNODEID 200545039082 INVNO 1 SYNCS ASYNC VARNAME _ZN4Base5countE VARID 201233933708 VARCLASS CLASSSTATIC VARADDRESS 0x6020b4 VARCONTAINERNAME Base VARCONTAINERNODEID 200974653263 INSLOC /data/user-home/srijoni/spandan/MTPSMARTKT/graphSMKT/smartKT/projects/SimplComprTest/lib/foo.h:31 TS 0_1_23
RETURN THREADID 0 FUNCNAME _ZN4Base8getCountEv FUNCNODEID 200545039082 INVNO 1 RETVAL UNKNOWN INSLOC /data/user-home/srijoni/spandan/MTPSMARTKT/graphSMKT/smartKT/projects/SimplComprTest/lib/foo.h:31 TS 0_1_24
READ THREADID 0 FUNCNAME main FUNCNODEID 200954073876 INVNO 1 SYNCS ASYNC VARNAME maxele VARID 201184962880 VARCLASS GLOBAL VARADDRESS 0x602070 INSLOC /data/user-home/srijoni/spandan/MTPSMARTKT/graphSMKT/smartKT/projects/SimplComprTest/src/main.cpp:23 TS 0_1_25
READ THREADID 0 FUNCNAME main FUNCNODEID 200954073876 INVNO 1 SYNCS ASYNC VARNAME i VARID 203817833550 VARCLASS LOCAL VAROFFSET 0x14 INSLOC /data/user-home/srijoni/spandan/MTPSMARTKT/graphSMKT/smartKT/projects/SimplComprTest/src/main.cpp:23 TS 0_1_26
READ THREADID 0 FUNCNAME main FUNCNODEID 200954073876 INVNO 1 SYNCS ASYNC VARNAME i VARID 203817833550 VARCLASS LOCAL VAROFFSET 0x14 INSLOC /data/user-home/srijoni/spandan/MTPSMARTKT/graphSMKT/smartKT/projects/SimplComprTest/src/main.cpp:24 TS 0_1_27
READ THREADID 0 FUNCNAME main FUNCNODEID 200954073876 INVNO 1 SYNCS ASYNC VARNAME arrSquare VARID 201039325255 VARCLASS GLOBAL VARADDRESS 0x6020a0 INSLOC /data/user-home/srijoni/spandan/MTPSMARTKT/graphSMKT/smartKT/projects/SimplComprTest/src/main.cpp:24 TS 0_1_28
READ THREADID 0 FUNCNAME main FUNCNODEID 200954073876 INVNO 1 SYNCS ASYNC VARNAME p VARID 201191999428 VARCLASS LOCAL VAROFFSET 0x4c INSLOC /data/user-home/srijoni/spandan/MTPSMARTKT/graphSMKT/smartKT/projects/SimplComprTest/src/main.cpp:24 TS 0_1_29
CALL THREADID 0  CALLERNAME main CALLERNODEID 200954073876 CALLEENAME _ZN6Square10makeSquareE5Pointi CALLEENODEID 201259763495 INVNO 1 ARG0 UNKNOWN ARG1 UNKNOWN STATICCALL [	202520103208 s. makeSquare ( p , arrSquare [ i ] )	] INSLOC /data/user-home/srijoni/spandan/MTPSMARTKT/graphSMKT/smartKT/projects/SimplComprTest/src/main.cpp:24 TS 0_1_30
CALL THREADID 0  CALLERNAME _ZN6Square10makeSquareE5Pointi CALLERNODEID 201259763495 CALLEENAME _ZN4Base8setPointE5Point CALLEENODEID 203738238113 INVNO 1 ARG0 UNKNOWN STATICCALL [	102213970836 setPoint( llp )	] INSLOC /data/user-home/srijoni/spandan/MTPSMARTKT/graphSMKT/smartKT/projects/SimplComprTest/lib/foo.cpp:8 TS 0_1_31
WRITE THREADID 0 FUNCNAME _ZN4Base8setPointE5Point FUNCNODEID 203738238113 INVNO 1 SYNCS ASYNC VARNAME s VARID 202175955133 VARCLASS NONLOCALSTACK VAROFFSET 0x44 VARFUNCNAME main VARFUNCNODEID 200954073876 VARFUNCTID 0 VARFUNCINVNO 1 INSLOC /data/user-home/srijoni/spandan/MTPSMARTKT/graphSMKT/smartKT/projects/SimplComprTest/lib/foo.h:28 TS 0_1_32
RETURN THREADID 0 FUNCNAME _ZN4Base8setPointE5Point FUNCNODEID 203738238113 INVNO 1 RETVAL void INSLOC /data/user-home/srijoni/spandan/MTPSMARTKT/graphSMKT/smartKT/projects/SimplComprTest/lib/foo.h:28 TS 0_1_33
WRITE THREADID 0 FUNCNAME _ZN6Square10makeSquareE5Pointi FUNCNODEID 201259763495 INVNO 1 SYNCS ASYNC VARNAME s VARID 202175955133 VARCLASS NONLOCALSTACK VAROFFSET 0x3c VARFUNCNAME main VARFUNCNODEID 200954073876 VARFUNCTID 0 VARFUNCINVNO 1 INSLOC /data/user-home/srijoni/spandan/MTPSMARTKT/graphSMKT/smartKT/projects/SimplComprTest/lib/foo.cpp:9 TS 0_1_34
RETURN THREADID 0 FUNCNAME _ZN6Square10makeSquareE5Pointi FUNCNODEID 201259763495 INVNO 1 RETVAL void INSLOC /data/user-home/srijoni/spandan/MTPSMARTKT/graphSMKT/smartKT/projects/SimplComprTest/lib/foo.cpp:10 TS 0_1_35
READ THREADID 0 FUNCNAME main FUNCNODEID 200954073876 INVNO 1 SYNCS ASYNC VARNAME i VARID 203817833550 VARCLASS LOCAL VAROFFSET 0x14 INSLOC /data/user-home/srijoni/spandan/MTPSMARTKT/graphSMKT/smartKT/projects/SimplComprTest/src/main.cpp:25 TS 0_1_36
READ THREADID 0 FUNCNAME main FUNCNODEID 200954073876 INVNO 1 SYNCS ASYNC VARNAME arrCircle VARID 200680237894 VARCLASS GLOBAL VARADDRESS 0x602080 INSLOC /data/user-home/srijoni/spandan/MTPSMARTKT/graphSMKT/smartKT/projects/SimplComprTest/src/main.cpp:25 TS 0_1_37
READ THREADID 0 FUNCNAME main FUNCNODEID 200954073876 INVNO 1 SYNCS ASYNC VARNAME p VARID 201191999428 VARCLASS LOCAL VAROFFSET 0x4c INSLOC /data/user-home/srijoni/spandan/MTPSMARTKT/graphSMKT/smartKT/projects/SimplComprTest/src/main.cpp:25 TS 0_1_38
CALL THREADID 0  CALLERNAME main CALLERNODEID 200954073876 CALLEENAME _ZN6Circle10makeCircleE5Pointi CALLEENODEID 202942189619 INVNO 1 ARG0 UNKNOWN ARG1 UNKNOWN STATICCALL [	200980079381 c. makeCircle ( p , arrCircle [ i ] )	] INSLOC /data/user-home/srijoni/spandan/MTPSMARTKT/graphSMKT/smartKT/projects/SimplComprTest/src/main.cpp:25 TS 0_1_39
CALL THREADID 0  CALLERNAME _ZN6Circle10makeCircleE5Pointi CALLERNODEID 202942189619 CALLEENAME _ZN4Base8setPointE5Point CALLEENODEID 203738238113 INVNO 1 ARG0 UNKNOWN STATICCALL [	103580314387 setPoint( llp )	] INSLOC /data/user-home/srijoni/spandan/MTPSMARTKT/graphSMKT/smartKT/projects/SimplComprTest/lib/foo.cpp:13 TS 0_1_40
WRITE THREADID 0 FUNCNAME _ZN4Base8setPointE5Point FUNCNODEID 203738238113 INVNO 2 SYNCS ASYNC VARNAME c VARID 203443302841 VARCLASS NONLOCALSTACK VAROFFSET 0x38 VARFUNCNAME main VARFUNCNODEID 200954073876 VARFUNCTID 0 VARFUNCINVNO 1 INSLOC /data/user-home/srijoni/spandan/MTPSMARTKT/graphSMKT/smartKT/projects/SimplComprTest/lib/foo.h:28 TS 0_1_41
RETURN THREADID 0 FUNCNAME _ZN4Base8setPointE5Point FUNCNODEID 203738238113 INVNO 2 RETVAL void INSLOC /data/user-home/srijoni/spandan/MTPSMARTKT/graphSMKT/smartKT/projects/SimplComprTest/lib/foo.h:28 TS 0_1_42
WRITE THREADID 0 FUNCNAME _ZN6Circle10makeCircleE5Pointi FUNCNODEID 202942189619 INVNO 1 SYNCS ASYNC VARNAME c VARID 203443302841 VARCLASS NONLOCALSTACK VAROFFSET 0x30 VARFUNCNAME main VARFUNCNODEID 200954073876 VARFUNCTID 0 VARFUNCINVNO 1 INSLOC /data/user-home/srijoni/spandan/MTPSMARTKT/graphSMKT/smartKT/projects/SimplComprTest/lib/foo.cpp:14 TS 0_1_43
RETURN THREADID 0 FUNCNAME _ZN6Circle10makeCircleE5Pointi FUNCNODEID 202942189619 INVNO 1 RETVAL void INSLOC /data/user-home/srijoni/spandan/MTPSMARTKT/graphSMKT/smartKT/projects/SimplComprTest/lib/foo.cpp:15 TS 0_1_44
READ THREADID 0 FUNCNAME main FUNCNODEID 200954073876 INVNO 1 SYNCS ASYNC VARNAME i VARID 203817833550 VARCLASS LOCAL VAROFFSET 0x14 INSLOC /data/user-home/srijoni/spandan/MTPSMARTKT/graphSMKT/smartKT/projects/SimplComprTest/src/main.cpp:26 TS 0_1_45
WRITE THREADID 0 FUNCNAME main FUNCNODEID 200954073876 INVNO 1 SYNCS ASYNC VARNAME i VARID 203817833550 VARCLASS LOCAL VAROFFSET 0x14 INSLOC /data/user-home/srijoni/spandan/MTPSMARTKT/graphSMKT/smartKT/projects/SimplComprTest/src/main.cpp:26 TS 0_1_46
READ THREADID 0 FUNCNAME main FUNCNODEID 200954073876 INVNO 1 SYNCS ASYNC VARNAME s VARID 202175955133 VARCLASS LOCAL VAROFFSET 0x44 INSLOC /data/user-home/srijoni/spandan/MTPSMARTKT/graphSMKT/smartKT/projects/SimplComprTest/src/main.cpp:27 TS 0_1_47
READ THREADID 0 FUNCNAME main FUNCNODEID 200954073876 INVNO 1 SYNCS ASYNC VARNAME s VARID 202175955133 VARCLASS LOCAL VAROFFSET 0x3c INSLOC /data/user-home/srijoni/spandan/MTPSMARTKT/graphSMKT/smartKT/projects/SimplComprTest/src/main.cpp:27 TS 0_1_48
READ THREADID 0 FUNCNAME main FUNCNODEID 200954073876 INVNO 1 SYNCS ASYNC VARNAME c VARID 203443302841 VARCLASS LOCAL VAROFFSET 0x38 INSLOC /data/user-home/srijoni/spandan/MTPSMARTKT/graphSMKT/smartKT/projects/SimplComprTest/src/main.cpp:27 TS 0_1_49
READ THREADID 0 FUNCNAME main FUNCNODEID 200954073876 INVNO 1 SYNCS ASYNC VARNAME c VARID 203443302841 VARCLASS LOCAL VAROFFSET 0x30 INSLOC /data/user-home/srijoni/spandan/MTPSMARTKT/graphSMKT/smartKT/projects/SimplComprTest/src/main.cpp:27 TS 0_1_50
CALL THREADID 0  CALLERNAME main CALLERNODEID 200954073876 CALLEENAME _Z7compare6Circle6Square CALLEENODEID 202854211754 INVNO 1 ARG0 UNKNOWN ARG1 UNKNOWN STATICCALL [	201645446226 compare( c , s )	] INSLOC /data/user-home/srijoni/spandan/MTPSMARTKT/graphSMKT/smartKT/projects/SimplComprTest/src/main.cpp:27 TS 0_1_51
CALL THREADID 0  CALLERNAME _Z7compare6Circle6Square CALLERNODEID 202854211754 CALLEENAME _Z4area6Circle CALLEENODEID 203223302425 INVNO 1 ARG0 UNKNOWN STATICCALL [	202120372487 area( c )	] INSLOC /data/user-home/srijoni/spandan/MTPSMARTKT/graphSMKT/smartKT/projects/SimplComprTest/src/main.cpp:4 TS 0_1_52
RETURN THREADID 0 FUNCNAME _Z4area6Circle FUNCNODEID 203223302425 INVNO 1 RETVAL 3 INSLOC /data/user-home/srijoni/spandan/MTPSMARTKT/graphSMKT/smartKT/projects/SimplComprTest/src/helper.cpp:5 TS 0_1_53
CALL THREADID 0  CALLERNAME _Z7compare6Circle6Square CALLERNODEID 202854211754 CALLEENAME _Z4area6Square CALLEENODEID 202772255989 INVNO 1 ARG0 UNKNOWN STATICCALL [	204149763127 area( s )	] INSLOC /data/user-home/srijoni/spandan/MTPSMARTKT/graphSMKT/smartKT/projects/SimplComprTest/src/main.cpp:4 TS 0_1_54
RETURN THREADID 0 FUNCNAME _Z4area6Square FUNCNODEID 202772255989 INVNO 1 RETVAL 36 INSLOC /data/user-home/srijoni/spandan/MTPSMARTKT/graphSMKT/smartKT/projects/SimplComprTest/lib/foo.cpp:19 TS 0_1_55
CALL THREADID 0  CALLERNAME _Z7compare6Circle6Square CALLERNODEID 202854211754 CALLEENAME _ZN6SquareD2Ev INVNO 1 ARGS NONE STATICCALL [	] INSLOC /data/user-home/srijoni/spandan/MTPSMARTKT/graphSMKT/smartKT/projects/SimplComprTest/src/main.cpp:4 TS 0_1_56
CALL THREADID 0  CALLERNAME _ZN6SquareD2Ev CALLEENAME _ZN4BaseD2Ev CALLEENODEID 200897991887 INVNO 1 ARGS NONE STATICCALL [	] INSLOC /data/user-home/srijoni/spandan/MTPSMARTKT/graphSMKT/smartKT/projects/SimplComprTest/lib/foo.h:34 TS 0_1_57
READ THREADID 0 FUNCNAME _ZN4BaseD2Ev FUNCNODEID 200897991887 INVNO 1 SYNCS ASYNC VARNAME _ZN4Base5countE VARID 201233933708 VARCLASS CLASSSTATIC VARADDRESS 0x6020b4 VARCONTAINERNAME Base VARCONTAINERNODEID 200974653263 INSLOC /data/user-home/srijoni/spandan/MTPSMARTKT/graphSMKT/smartKT/projects/SimplComprTest/lib/foo.h:25 TS 0_1_58
WRITE THREADID 0 FUNCNAME _ZN4BaseD2Ev FUNCNODEID 200897991887 INVNO 1 SYNCS ASYNC VARNAME _ZN4Base5countE VARID 201233933708 VARCLASS CLASSSTATIC VARADDRESS 0x6020b4 VARCONTAINERNAME Base VARCONTAINERNODEID 200974653263 INSLOC /data/user-home/srijoni/spandan/MTPSMARTKT/graphSMKT/smartKT/projects/SimplComprTest/lib/foo.h:25 TS 0_1_59
RETURN THREADID 0 FUNCNAME _ZN4BaseD2Ev FUNCNODEID 200897991887 INVNO 1 RETVAL UNKNOWN INSLOC /data/user-home/srijoni/spandan/MTPSMARTKT/graphSMKT/smartKT/projects/SimplComprTest/lib/foo.h:26 TS 0_1_60
RETURN THREADID 0 FUNCNAME _ZN6SquareD2Ev INVNO 1 INSLOC /data/user-home/srijoni/spandan/MTPSMARTKT/graphSMKT/smartKT/projects/SimplComprTest/lib/foo.h:34 TS 0_1_61
CALL THREADID 0  CALLERNAME _Z7compare6Circle6Square CALLERNODEID 202854211754 CALLEENAME _ZN6CircleD2Ev INVNO 1 ARGS NONE STATICCALL [	] INSLOC /data/user-home/srijoni/spandan/MTPSMARTKT/graphSMKT/smartKT/projects/SimplComprTest/src/main.cpp:4 TS 0_1_62
CALL THREADID 0  CALLERNAME _ZN6CircleD2Ev CALLEENAME _ZN4BaseD2Ev CALLEENODEID 200897991887 INVNO 1 ARGS NONE STATICCALL [	] INSLOC /data/user-home/srijoni/spandan/MTPSMARTKT/graphSMKT/smartKT/projects/SimplComprTest/lib/foo.h:41 TS 0_1_63
READ THREADID 0 FUNCNAME _ZN4BaseD2Ev FUNCNODEID 200897991887 INVNO 2 SYNCS ASYNC VARNAME _ZN4Base5countE VARID 201233933708 VARCLASS CLASSSTATIC VARADDRESS 0x6020b4 VARCONTAINERNAME Base VARCONTAINERNODEID 200974653263 INSLOC /data/user-home/srijoni/spandan/MTPSMARTKT/graphSMKT/smartKT/projects/SimplComprTest/lib/foo.h:25 TS 0_1_64
WRITE THREADID 0 FUNCNAME _ZN4BaseD2Ev FUNCNODEID 200897991887 INVNO 2 SYNCS ASYNC VARNAME _ZN4Base5countE VARID 201233933708 VARCLASS CLASSSTATIC VARADDRESS 0x6020b4 VARCONTAINERNAME Base VARCONTAINERNODEID 200974653263 INSLOC /data/user-home/srijoni/spandan/MTPSMARTKT/graphSMKT/smartKT/projects/SimplComprTest/lib/foo.h:25 TS 0_1_65
RETURN THREADID 0 FUNCNAME _ZN4BaseD2Ev FUNCNODEID 200897991887 INVNO 2 RETVAL UNKNOWN INSLOC /data/user-home/srijoni/spandan/MTPSMARTKT/graphSMKT/smartKT/projects/SimplComprTest/lib/foo.h:26 TS 0_1_66
RETURN THREADID 0 FUNCNAME _ZN6CircleD2Ev INVNO 1 INSLOC /data/user-home/srijoni/spandan/MTPSMARTKT/graphSMKT/smartKT/projects/SimplComprTest/lib/foo.h:41 TS 0_1_67
RETURN THREADID 0 FUNCNAME _Z7compare6Circle6Square FUNCNODEID 202854211754 INVNO 1 RETVAL 0 INSLOC /data/user-home/srijoni/spandan/MTPSMARTKT/graphSMKT/smartKT/projects/SimplComprTest/src/main.cpp:9 TS 0_1_68
CALL THREADID 0  CALLERNAME main CALLERNODEID 200954073876 CALLEENAME _ZN6CircleD2Ev INVNO 1 ARGS NONE STATICCALL [	] INSLOC /data/user-home/srijoni/spandan/MTPSMARTKT/graphSMKT/smartKT/projects/SimplComprTest/src/main.cpp:27 TS 0_1_69
CALL THREADID 0  CALLERNAME _ZN6CircleD2Ev CALLEENAME _ZN4BaseD2Ev CALLEENODEID 200897991887 INVNO 2 ARGS NONE STATICCALL [	] INSLOC /data/user-home/srijoni/spandan/MTPSMARTKT/graphSMKT/smartKT/projects/SimplComprTest/lib/foo.h:41 TS 0_1_70
READ THREADID 0 FUNCNAME _ZN4BaseD2Ev FUNCNODEID 200897991887 INVNO 3 SYNCS ASYNC VARNAME _ZN4Base5countE VARID 201233933708 VARCLASS CLASSSTATIC VARADDRESS 0x6020b4 VARCONTAINERNAME Base VARCONTAINERNODEID 200974653263 INSLOC /data/user-home/srijoni/spandan/MTPSMARTKT/graphSMKT/smartKT/projects/SimplComprTest/lib/foo.h:25 TS 0_1_71
WRITE THREADID 0 FUNCNAME _ZN4BaseD2Ev FUNCNODEID 200897991887 INVNO 3 SYNCS ASYNC VARNAME _ZN4Base5countE VARID 201233933708 VARCLASS CLASSSTATIC VARADDRESS 0x6020b4 VARCONTAINERNAME Base VARCONTAINERNODEID 200974653263 INSLOC /data/user-home/srijoni/spandan/MTPSMARTKT/graphSMKT/smartKT/projects/SimplComprTest/lib/foo.h:25 TS 0_1_72
RETURN THREADID 0 FUNCNAME _ZN4BaseD2Ev FUNCNODEID 200897991887 INVNO 3 RETVAL UNKNOWN INSLOC /data/user-home/srijoni/spandan/MTPSMARTKT/graphSMKT/smartKT/projects/SimplComprTest/lib/foo.h:26 TS 0_1_73
RETURN THREADID 0 FUNCNAME _ZN6CircleD2Ev INVNO 2 INSLOC /data/user-home/srijoni/spandan/MTPSMARTKT/graphSMKT/smartKT/projects/SimplComprTest/lib/foo.h:41 TS 0_1_74
CALL THREADID 0  CALLERNAME main CALLERNODEID 200954073876 CALLEENAME _ZN6SquareD2Ev INVNO 1 ARGS NONE STATICCALL [	] INSLOC /data/user-home/srijoni/spandan/MTPSMARTKT/graphSMKT/smartKT/projects/SimplComprTest/src/main.cpp:27 TS 0_1_75
CALL THREADID 0  CALLERNAME _ZN6SquareD2Ev CALLEENAME _ZN4BaseD2Ev CALLEENODEID 200897991887 INVNO 2 ARGS NONE STATICCALL [	] INSLOC /data/user-home/srijoni/spandan/MTPSMARTKT/graphSMKT/smartKT/projects/SimplComprTest/lib/foo.h:34 TS 0_1_76
READ THREADID 0 FUNCNAME _ZN4BaseD2Ev FUNCNODEID 200897991887 INVNO 4 SYNCS ASYNC VARNAME _ZN4Base5countE VARID 201233933708 VARCLASS CLASSSTATIC VARADDRESS 0x6020b4 VARCONTAINERNAME Base VARCONTAINERNODEID 200974653263 INSLOC /data/user-home/srijoni/spandan/MTPSMARTKT/graphSMKT/smartKT/projects/SimplComprTest/lib/foo.h:25 TS 0_1_77
WRITE THREADID 0 FUNCNAME _ZN4BaseD2Ev FUNCNODEID 200897991887 INVNO 4 SYNCS ASYNC VARNAME _ZN4Base5countE VARID 201233933708 VARCLASS CLASSSTATIC VARADDRESS 0x6020b4 VARCONTAINERNAME Base VARCONTAINERNODEID 200974653263 INSLOC /data/user-home/srijoni/spandan/MTPSMARTKT/graphSMKT/smartKT/projects/SimplComprTest/lib/foo.h:25 TS 0_1_78
RETURN THREADID 0 FUNCNAME _ZN4BaseD2Ev FUNCNODEID 200897991887 INVNO 4 RETVAL UNKNOWN INSLOC /data/user-home/srijoni/spandan/MTPSMARTKT/graphSMKT/smartKT/projects/SimplComprTest/lib/foo.h:26 TS 0_1_79
RETURN THREADID 0 FUNCNAME _ZN6SquareD2Ev INVNO 2 INSLOC /data/user-home/srijoni/spandan/MTPSMARTKT/graphSMKT/smartKT/projects/SimplComprTest/lib/foo.h:34 TS 0_1_80
READ THREADID 0 FUNCNAME main FUNCNODEID 200954073876 INVNO 1 SYNCS ASYNC VARNAME count VARID 301246238228 VARCLASS GLOBAL VARADDRESS 0x6020bc INSLOC /data/user-home/srijoni/spandan/MTPSMARTKT/graphSMKT/smartKT/projects/SimplComprTest/src/main.cpp:30 TS 0_1_81
WRITE THREADID 0 FUNCNAME main FUNCNODEID 200954073876 INVNO 1 SYNCS ASYNC VARNAME count VARID 301246238228 VARCLASS GLOBAL VARADDRESS 0x6020bc INSLOC /data/user-home/srijoni/spandan/MTPSMARTKT/graphSMKT/smartKT/projects/SimplComprTest/src/main.cpp:30 TS 0_1_82
READ THREADID 0 FUNCNAME main FUNCNODEID 200954073876 INVNO 1 SYNCS ASYNC VARNAME maxele VARID 201184962880 VARCLASS GLOBAL VARADDRESS 0x602070 INSLOC /data/user-home/srijoni/spandan/MTPSMARTKT/graphSMKT/smartKT/projects/SimplComprTest/src/main.cpp:23 TS 0_1_83
READ THREADID 0 FUNCNAME main FUNCNODEID 200954073876 INVNO 1 SYNCS ASYNC VARNAME i VARID 203817833550 VARCLASS LOCAL VAROFFSET 0x14 INSLOC /data/user-home/srijoni/spandan/MTPSMARTKT/graphSMKT/smartKT/projects/SimplComprTest/src/main.cpp:23 TS 0_1_84
READ THREADID 0 FUNCNAME main FUNCNODEID 200954073876 INVNO 1 SYNCS ASYNC VARNAME i VARID 203817833550 VARCLASS LOCAL VAROFFSET 0x14 INSLOC /data/user-home/srijoni/spandan/MTPSMARTKT/graphSMKT/smartKT/projects/SimplComprTest/src/main.cpp:24 TS 0_1_85
READ THREADID 0 FUNCNAME main FUNCNODEID 200954073876 INVNO 1 SYNCS ASYNC VARNAME p VARID 201191999428 VARCLASS LOCAL VAROFFSET 0x4c INSLOC /data/user-home/srijoni/spandan/MTPSMARTKT/graphSMKT/smartKT/projects/SimplComprTest/src/main.cpp:24 TS 0_1_86
CALL THREADID 0  CALLERNAME main CALLERNODEID 200954073876 CALLEENAME _ZN6Square10makeSquareE5Pointi CALLEENODEID 201259763495 INVNO 1 ARG0 UNKNOWN ARG1 UNKNOWN STATICCALL [	202520103208 s. makeSquare ( p , arrSquare [ i ] )	] INSLOC /data/user-home/srijoni/spandan/MTPSMARTKT/graphSMKT/smartKT/projects/SimplComprTest/src/main.cpp:24 TS 0_1_87
CALL THREADID 0  CALLERNAME _ZN6Square10makeSquareE5Pointi CALLERNODEID 201259763495 CALLEENAME _ZN4Base8setPointE5Point CALLEENODEID 203738238113 INVNO 2 ARG0 UNKNOWN STATICCALL [	102213970836 setPoint( llp )	] INSLOC /data/user-home/srijoni/spandan/MTPSMARTKT/graphSMKT/smartKT/projects/SimplComprTest/lib/foo.cpp:8 TS 0_1_88
WRITE THREADID 0 FUNCNAME _ZN4Base8setPointE5Point FUNCNODEID 203738238113 INVNO 3 SYNCS ASYNC VARNAME s VARID 202175955133 VARCLASS NONLOCALSTACK VAROFFSET 0x44 VARFUNCNAME main VARFUNCNODEID 200954073876 VARFUNCTID 0 VARFUNCINVNO 1 INSLOC /data/user-home/srijoni/spandan/MTPSMARTKT/graphSMKT/smartKT/projects/SimplComprTest/lib/foo.h:28 TS 0_1_89
RETURN THREADID 0 FUNCNAME _ZN4Base8setPointE5Point FUNCNODEID 203738238113 INVNO 3 RETVAL void INSLOC /data/user-home/srijoni/spandan/MTPSMARTKT/graphSMKT/smartKT/projects/SimplComprTest/lib/foo.h:28 TS 0_1_90
WRITE THREADID 0 FUNCNAME _ZN6Square10makeSquareE5Pointi FUNCNODEID 201259763495 INVNO 2 SYNCS ASYNC VARNAME s VARID 202175955133 VARCLASS NONLOCALSTACK VAROFFSET 0x3c VARFUNCNAME main VARFUNCNODEID 200954073876 VARFUNCTID 0 VARFUNCINVNO 1 INSLOC /data/user-home/srijoni/spandan/MTPSMARTKT/graphSMKT/smartKT/projects/SimplComprTest/lib/foo.cpp:9 TS 0_1_91
RETURN THREADID 0 FUNCNAME _ZN6Square10makeSquareE5Pointi FUNCNODEID 201259763495 INVNO 2 RETVAL void INSLOC /data/user-home/srijoni/spandan/MTPSMARTKT/graphSMKT/smartKT/projects/SimplComprTest/lib/foo.cpp:10 TS 0_1_92
READ THREADID 0 FUNCNAME main FUNCNODEID 200954073876 INVNO 1 SYNCS ASYNC VARNAME i VARID 203817833550 VARCLASS LOCAL VAROFFSET 0x14 INSLOC /data/user-home/srijoni/spandan/MTPSMARTKT/graphSMKT/smartKT/projects/SimplComprTest/src/main.cpp:25 TS 0_1_93
READ THREADID 0 FUNCNAME main FUNCNODEID 200954073876 INVNO 1 SYNCS ASYNC VARNAME p VARID 201191999428 VARCLASS LOCAL VAROFFSET 0x4c INSLOC /data/user-home/srijoni/spandan/MTPSMARTKT/graphSMKT/smartKT/projects/SimplComprTest/src/main.cpp:25 TS 0_1_94
CALL THREADID 0  CALLERNAME main CALLERNODEID 200954073876 CALLEENAME _ZN6Circle10makeCircleE5Pointi CALLEENODEID 202942189619 INVNO 1 ARG0 UNKNOWN ARG1 UNKNOWN STATICCALL [	200980079381 c. makeCircle ( p , arrCircle [ i ] )	] INSLOC /data/user-home/srijoni/spandan/MTPSMARTKT/graphSMKT/smartKT/projects/SimplComprTest/src/main.cpp:25 TS 0_1_95
CALL THREADID 0  CALLERNAME _ZN6Circle10makeCircleE5Pointi CALLERNODEID 202942189619 CALLEENAME _ZN4Base8setPointE5Point CALLEENODEID 203738238113 INVNO 2 ARG0 UNKNOWN STATICCALL [	103580314387 setPoint( llp )	] INSLOC /data/user-home/srijoni/spandan/MTPSMARTKT/graphSMKT/smartKT/projects/SimplComprTest/lib/foo.cpp:13 TS 0_1_96
WRITE THREADID 0 FUNCNAME _ZN4Base8setPointE5Point FUNCNODEID 203738238113 INVNO 4 SYNCS ASYNC VARNAME c VARID 203443302841 VARCLASS NONLOCALSTACK VAROFFSET 0x38 VARFUNCNAME main VARFUNCNODEID 200954073876 VARFUNCTID 0 VARFUNCINVNO 1 INSLOC /data/user-home/srijoni/spandan/MTPSMARTKT/graphSMKT/smartKT/projects/SimplComprTest/lib/foo.h:28 TS 0_1_97
RETURN THREADID 0 FUNCNAME _ZN4Base8setPointE5Point FUNCNODEID 203738238113 INVNO 4 RETVAL void INSLOC /data/user-home/srijoni/spandan/MTPSMARTKT/graphSMKT/smartKT/projects/SimplComprTest/lib/foo.h:28 TS 0_1_98
WRITE THREADID 0 FUNCNAME _ZN6Circle10makeCircleE5Pointi FUNCNODEID 202942189619 INVNO 2 SYNCS ASYNC VARNAME c VARID 203443302841 VARCLASS NONLOCALSTACK VAROFFSET 0x30 VARFUNCNAME main VARFUNCNODEID 200954073876 VARFUNCTID 0 VARFUNCINVNO 1 INSLOC /data/user-home/srijoni/spandan/MTPSMARTKT/graphSMKT/smartKT/projects/SimplComprTest/lib/foo.cpp:14 TS 0_1_99
RETURN THREADID 0 FUNCNAME _ZN6Circle10makeCircleE5Pointi FUNCNODEID 202942189619 INVNO 2 RETVAL void INSLOC /data/user-home/srijoni/spandan/MTPSMARTKT/graphSMKT/smartKT/projects/SimplComprTest/lib/foo.cpp:15 TS 0_1_100
READ THREADID 0 FUNCNAME main FUNCNODEID 200954073876 INVNO 1 SYNCS ASYNC VARNAME i VARID 203817833550 VARCLASS LOCAL VAROFFSET 0x14 INSLOC /data/user-home/srijoni/spandan/MTPSMARTKT/graphSMKT/smartKT/projects/SimplComprTest/src/main.cpp:26 TS 0_1_101
WRITE THREADID 0 FUNCNAME main FUNCNODEID 200954073876 INVNO 1 SYNCS ASYNC VARNAME i VARID 203817833550 VARCLASS LOCAL VAROFFSET 0x14 INSLOC /data/user-home/srijoni/spandan/MTPSMARTKT/graphSMKT/smartKT/projects/SimplComprTest/src/main.cpp:26 TS 0_1_102
READ THREADID 0 FUNCNAME main FUNCNODEID 200954073876 INVNO 1 SYNCS ASYNC VARNAME s VARID 202175955133 VARCLASS LOCAL VAROFFSET 0x44 INSLOC /data/user-home/srijoni/spandan/MTPSMARTKT/graphSMKT/smartKT/projects/SimplComprTest/src/main.cpp:27 TS 0_1_103
READ THREADID 0 FUNCNAME main FUNCNODEID 200954073876 INVNO 1 SYNCS ASYNC VARNAME s VARID 202175955133 VARCLASS LOCAL VAROFFSET 0x3c INSLOC /data/user-home/srijoni/spandan/MTPSMARTKT/graphSMKT/smartKT/projects/SimplComprTest/src/main.cpp:27 TS 0_1_104
READ THREADID 0 FUNCNAME main FUNCNODEID 200954073876 INVNO 1 SYNCS ASYNC VARNAME c VARID 203443302841 VARCLASS LOCAL VAROFFSET 0x38 INSLOC /data/user-home/srijoni/spandan/MTPSMARTKT/graphSMKT/smartKT/projects/SimplComprTest/src/main.cpp:27 TS 0_1_105
READ THREADID 0 FUNCNAME main FUNCNODEID 200954073876 INVNO 1 SYNCS ASYNC VARNAME c VARID 203443302841 VARCLASS LOCAL VAROFFSET 0x30 INSLOC /data/user-home/srijoni/spandan/MTPSMARTKT/graphSMKT/smartKT/projects/SimplComprTest/src/main.cpp:27 TS 0_1_106
CALL THREADID 0  CALLERNAME main CALLERNODEID 200954073876 CALLEENAME _Z7compare6Circle6Square CALLEENODEID 202854211754 INVNO 1 ARG0 UNKNOWN ARG1 UNKNOWN STATICCALL [	201645446226 compare( c , s )	] INSLOC /data/user-home/srijoni/spandan/MTPSMARTKT/graphSMKT/smartKT/projects/SimplComprTest/src/main.cpp:27 TS 0_1_107
CALL THREADID 0  CALLERNAME _Z7compare6Circle6Square CALLERNODEID 202854211754 CALLEENAME _Z4area6Circle CALLEENODEID 203223302425 INVNO 2 ARG0 UNKNOWN STATICCALL [	202120372487 area( c )	] INSLOC /data/user-home/srijoni/spandan/MTPSMARTKT/graphSMKT/smartKT/projects/SimplComprTest/src/main.cpp:4 TS 0_1_108
RETURN THREADID 0 FUNCNAME _Z4area6Circle FUNCNODEID 203223302425 INVNO 2 RETVAL 12 INSLOC /data/user-home/srijoni/spandan/MTPSMARTKT/graphSMKT/smartKT/projects/SimplComprTest/src/helper.cpp:5 TS 0_1_109
CALL THREADID 0  CALLERNAME _Z7compare6Circle6Square CALLERNODEID 202854211754 CALLEENAME _Z4area6Square CALLEENODEID 202772255989 INVNO 2 ARG0 UNKNOWN STATICCALL [	204149763127 area( s )	] INSLOC /data/user-home/srijoni/spandan/MTPSMARTKT/graphSMKT/smartKT/projects/SimplComprTest/src/main.cpp:4 TS 0_1_110
RETURN THREADID 0 FUNCNAME _Z4area6Square FUNCNODEID 202772255989 INVNO 2 RETVAL 25 INSLOC /data/user-home/srijoni/spandan/MTPSMARTKT/graphSMKT/smartKT/projects/SimplComprTest/lib/foo.cpp:19 TS 0_1_111
CALL THREADID 0  CALLERNAME _Z7compare6Circle6Square CALLERNODEID 202854211754 CALLEENAME _ZN6SquareD2Ev INVNO 2 ARGS NONE STATICCALL [	] INSLOC /data/user-home/srijoni/spandan/MTPSMARTKT/graphSMKT/smartKT/projects/SimplComprTest/src/main.cpp:4 TS 0_1_112
CALL THREADID 0  CALLERNAME _ZN6SquareD2Ev CALLEENAME _ZN4BaseD2Ev CALLEENODEID 200897991887 INVNO 3 ARGS NONE STATICCALL [	] INSLOC /data/user-home/srijoni/spandan/MTPSMARTKT/graphSMKT/smartKT/projects/SimplComprTest/lib/foo.h:34 TS 0_1_113
READ THREADID 0 FUNCNAME _ZN4BaseD2Ev FUNCNODEID 200897991887 INVNO 5 SYNCS ASYNC VARNAME _ZN4Base5countE VARID 201233933708 VARCLASS CLASSSTATIC VARADDRESS 0x6020b4 VARCONTAINERNAME Base VARCONTAINERNODEID 200974653263 INSLOC /data/user-home/srijoni/spandan/MTPSMARTKT/graphSMKT/smartKT/projects/SimplComprTest/lib/foo.h:25 TS 0_1_114
WRITE THREADID 0 FUNCNAME _ZN4BaseD2Ev FUNCNODEID 200897991887 INVNO 5 SYNCS ASYNC VARNAME _ZN4Base5countE VARID 201233933708 VARCLASS CLASSSTATIC VARADDRESS 0x6020b4 VARCONTAINERNAME Base VARCONTAINERNODEID 200974653263 INSLOC /data/user-home/srijoni/spandan/MTPSMARTKT/graphSMKT/smartKT/projects/SimplComprTest/lib/foo.h:25 TS 0_1_115
RETURN THREADID 0 FUNCNAME _ZN4BaseD2Ev FUNCNODEID 200897991887 INVNO 5 RETVAL UNKNOWN INSLOC /data/user-home/srijoni/spandan/MTPSMARTKT/graphSMKT/smartKT/projects/SimplComprTest/lib/foo.h:26 TS 0_1_116
RETURN THREADID 0 FUNCNAME _ZN6SquareD2Ev INVNO 3 INSLOC /data/user-home/srijoni/spandan/MTPSMARTKT/graphSMKT/smartKT/projects/SimplComprTest/lib/foo.h:34 TS 0_1_117
CALL THREADID 0  CALLERNAME _Z7compare6Circle6Square CALLERNODEID 202854211754 CALLEENAME _ZN6CircleD2Ev INVNO 2 ARGS NONE STATICCALL [	] INSLOC /data/user-home/srijoni/spandan/MTPSMARTKT/graphSMKT/smartKT/projects/SimplComprTest/src/main.cpp:4 TS 0_1_118
CALL THREADID 0  CALLERNAME _ZN6CircleD2Ev CALLEENAME _ZN4BaseD2Ev CALLEENODEID 200897991887 INVNO 3 ARGS NONE STATICCALL [	] INSLOC /data/user-home/srijoni/spandan/MTPSMARTKT/graphSMKT/smartKT/projects/SimplComprTest/lib/foo.h:41 TS 0_1_119
READ THREADID 0 FUNCNAME _ZN4BaseD2Ev FUNCNODEID 200897991887 INVNO 6 SYNCS ASYNC VARNAME _ZN4Base5countE VARID 201233933708 VARCLASS CLASSSTATIC VARADDRESS 0x6020b4 VARCONTAINERNAME Base VARCONTAINERNODEID 200974653263 INSLOC /data/user-home/srijoni/spandan/MTPSMARTKT/graphSMKT/smartKT/projects/SimplComprTest/lib/foo.h:25 TS 0_1_120
WRITE THREADID 0 FUNCNAME _ZN4BaseD2Ev FUNCNODEID 200897991887 INVNO 6 SYNCS ASYNC VARNAME _ZN4Base5countE VARID 201233933708 VARCLASS CLASSSTATIC VARADDRESS 0x6020b4 VARCONTAINERNAME Base VARCONTAINERNODEID 200974653263 INSLOC /data/user-home/srijoni/spandan/MTPSMARTKT/graphSMKT/smartKT/projects/SimplComprTest/lib/foo.h:25 TS 0_1_121
RETURN THREADID 0 FUNCNAME _ZN4BaseD2Ev FUNCNODEID 200897991887 INVNO 6 RETVAL UNKNOWN INSLOC /data/user-home/srijoni/spandan/MTPSMARTKT/graphSMKT/smartKT/projects/SimplComprTest/lib/foo.h:26 TS 0_1_122
RETURN THREADID 0 FUNCNAME _ZN6CircleD2Ev INVNO 3 INSLOC /data/user-home/srijoni/spandan/MTPSMARTKT/graphSMKT/smartKT/projects/SimplComprTest/lib/foo.h:41 TS 0_1_123
RETURN THREADID 0 FUNCNAME _Z7compare6Circle6Square FUNCNODEID 202854211754 INVNO 2 RETVAL 0 INSLOC /data/user-home/srijoni/spandan/MTPSMARTKT/graphSMKT/smartKT/projects/SimplComprTest/src/main.cpp:9 TS 0_1_124
CALL THREADID 0  CALLERNAME main CALLERNODEID 200954073876 CALLEENAME _ZN6CircleD2Ev INVNO 1 ARGS NONE STATICCALL [	] INSLOC /data/user-home/srijoni/spandan/MTPSMARTKT/graphSMKT/smartKT/projects/SimplComprTest/src/main.cpp:27 TS 0_1_125
CALL THREADID 0  CALLERNAME _ZN6CircleD2Ev CALLEENAME _ZN4BaseD2Ev CALLEENODEID 200897991887 INVNO 4 ARGS NONE STATICCALL [	] INSLOC /data/user-home/srijoni/spandan/MTPSMARTKT/graphSMKT/smartKT/projects/SimplComprTest/lib/foo.h:41 TS 0_1_126
READ THREADID 0 FUNCNAME _ZN4BaseD2Ev FUNCNODEID 200897991887 INVNO 7 SYNCS ASYNC VARNAME _ZN4Base5countE VARID 201233933708 VARCLASS CLASSSTATIC VARADDRESS 0x6020b4 VARCONTAINERNAME Base VARCONTAINERNODEID 200974653263 INSLOC /data/user-home/srijoni/spandan/MTPSMARTKT/graphSMKT/smartKT/projects/SimplComprTest/lib/foo.h:25 TS 0_1_127
WRITE THREADID 0 FUNCNAME _ZN4BaseD2Ev FUNCNODEID 200897991887 INVNO 7 SYNCS ASYNC VARNAME _ZN4Base5countE VARID 201233933708 VARCLASS CLASSSTATIC VARADDRESS 0x6020b4 VARCONTAINERNAME Base VARCONTAINERNODEID 200974653263 INSLOC /data/user-home/srijoni/spandan/MTPSMARTKT/graphSMKT/smartKT/projects/SimplComprTest/lib/foo.h:25 TS 0_1_128
RETURN THREADID 0 FUNCNAME _ZN4BaseD2Ev FUNCNODEID 200897991887 INVNO 7 RETVAL UNKNOWN INSLOC /data/user-home/srijoni/spandan/MTPSMARTKT/graphSMKT/smartKT/projects/SimplComprTest/lib/foo.h:26 TS 0_1_129
RETURN THREADID 0 FUNCNAME _ZN6CircleD2Ev INVNO 4 INSLOC /data/user-home/srijoni/spandan/MTPSMARTKT/graphSMKT/smartKT/projects/SimplComprTest/lib/foo.h:41 TS 0_1_130
CALL THREADID 0  CALLERNAME main CALLERNODEID 200954073876 CALLEENAME _ZN6SquareD2Ev INVNO 1 ARGS NONE STATICCALL [	] INSLOC /data/user-home/srijoni/spandan/MTPSMARTKT/graphSMKT/smartKT/projects/SimplComprTest/src/main.cpp:27 TS 0_1_131
CALL THREADID 0  CALLERNAME _ZN6SquareD2Ev CALLEENAME _ZN4BaseD2Ev CALLEENODEID 200897991887 INVNO 4 ARGS NONE STATICCALL [	] INSLOC /data/user-home/srijoni/spandan/MTPSMARTKT/graphSMKT/smartKT/projects/SimplComprTest/lib/foo.h:34 TS 0_1_132
READ THREADID 0 FUNCNAME _ZN4BaseD2Ev FUNCNODEID 200897991887 INVNO 8 SYNCS ASYNC VARNAME _ZN4Base5countE VARID 201233933708 VARCLASS CLASSSTATIC VARADDRESS 0x6020b4 VARCONTAINERNAME Base VARCONTAINERNODEID 200974653263 INSLOC /data/user-home/srijoni/spandan/MTPSMARTKT/graphSMKT/smartKT/projects/SimplComprTest/lib/foo.h:25 TS 0_1_133
WRITE THREADID 0 FUNCNAME _ZN4BaseD2Ev FUNCNODEID 200897991887 INVNO 8 SYNCS ASYNC VARNAME _ZN4Base5countE VARID 201233933708 VARCLASS CLASSSTATIC VARADDRESS 0x6020b4 VARCONTAINERNAME Base VARCONTAINERNODEID 200974653263 INSLOC /data/user-home/srijoni/spandan/MTPSMARTKT/graphSMKT/smartKT/projects/SimplComprTest/lib/foo.h:25 TS 0_1_134
RETURN THREADID 0 FUNCNAME _ZN4BaseD2Ev FUNCNODEID 200897991887 INVNO 8 RETVAL UNKNOWN INSLOC /data/user-home/srijoni/spandan/MTPSMARTKT/graphSMKT/smartKT/projects/SimplComprTest/lib/foo.h:26 TS 0_1_135
RETURN THREADID 0 FUNCNAME _ZN6SquareD2Ev INVNO 4 INSLOC /data/user-home/srijoni/spandan/MTPSMARTKT/graphSMKT/smartKT/projects/SimplComprTest/lib/foo.h:34 TS 0_1_136
READ THREADID 0 FUNCNAME main FUNCNODEID 200954073876 INVNO 1 SYNCS ASYNC VARNAME count VARID 301246238228 VARCLASS GLOBAL VARADDRESS 0x6020bc INSLOC /data/user-home/srijoni/spandan/MTPSMARTKT/graphSMKT/smartKT/projects/SimplComprTest/src/main.cpp:30 TS 0_1_137
WRITE THREADID 0 FUNCNAME main FUNCNODEID 200954073876 INVNO 1 SYNCS ASYNC VARNAME count VARID 301246238228 VARCLASS GLOBAL VARADDRESS 0x6020bc INSLOC /data/user-home/srijoni/spandan/MTPSMARTKT/graphSMKT/smartKT/projects/SimplComprTest/src/main.cpp:30 TS 0_1_138
READ THREADID 0 FUNCNAME main FUNCNODEID 200954073876 INVNO 1 SYNCS ASYNC VARNAME maxele VARID 201184962880 VARCLASS GLOBAL VARADDRESS 0x602070 INSLOC /data/user-home/srijoni/spandan/MTPSMARTKT/graphSMKT/smartKT/projects/SimplComprTest/src/main.cpp:23 TS 0_1_139
READ THREADID 0 FUNCNAME main FUNCNODEID 200954073876 INVNO 1 SYNCS ASYNC VARNAME i VARID 203817833550 VARCLASS LOCAL VAROFFSET 0x14 INSLOC /data/user-home/srijoni/spandan/MTPSMARTKT/graphSMKT/smartKT/projects/SimplComprTest/src/main.cpp:23 TS 0_1_140
READ THREADID 0 FUNCNAME main FUNCNODEID 200954073876 INVNO 1 SYNCS ASYNC VARNAME i VARID 203817833550 VARCLASS LOCAL VAROFFSET 0x14 INSLOC /data/user-home/srijoni/spandan/MTPSMARTKT/graphSMKT/smartKT/projects/SimplComprTest/src/main.cpp:24 TS 0_1_141
READ THREADID 0 FUNCNAME main FUNCNODEID 200954073876 INVNO 1 SYNCS ASYNC VARNAME p VARID 201191999428 VARCLASS LOCAL VAROFFSET 0x4c INSLOC /data/user-home/srijoni/spandan/MTPSMARTKT/graphSMKT/smartKT/projects/SimplComprTest/src/main.cpp:24 TS 0_1_142
CALL THREADID 0  CALLERNAME main CALLERNODEID 200954073876 CALLEENAME _ZN6Square10makeSquareE5Pointi CALLEENODEID 201259763495 INVNO 1 ARG0 UNKNOWN ARG1 UNKNOWN STATICCALL [	202520103208 s. makeSquare ( p , arrSquare [ i ] )	] INSLOC /data/user-home/srijoni/spandan/MTPSMARTKT/graphSMKT/smartKT/projects/SimplComprTest/src/main.cpp:24 TS 0_1_143
CALL THREADID 0  CALLERNAME _ZN6Square10makeSquareE5Pointi CALLERNODEID 201259763495 CALLEENAME _ZN4Base8setPointE5Point CALLEENODEID 203738238113 INVNO 3 ARG0 UNKNOWN STATICCALL [	102213970836 setPoint( llp )	] INSLOC /data/user-home/srijoni/spandan/MTPSMARTKT/graphSMKT/smartKT/projects/SimplComprTest/lib/foo.cpp:8 TS 0_1_144
WRITE THREADID 0 FUNCNAME _ZN4Base8setPointE5Point FUNCNODEID 203738238113 INVNO 5 SYNCS ASYNC VARNAME s VARID 202175955133 VARCLASS NONLOCALSTACK VAROFFSET 0x44 VARFUNCNAME main VARFUNCNODEID 200954073876 VARFUNCTID 0 VARFUNCINVNO 1 INSLOC /data/user-home/srijoni/spandan/MTPSMARTKT/graphSMKT/smartKT/projects/SimplComprTest/lib/foo.h:28 TS 0_1_145
RETURN THREADID 0 FUNCNAME _ZN4Base8setPointE5Point FUNCNODEID 203738238113 INVNO 5 RETVAL void INSLOC /data/user-home/srijoni/spandan/MTPSMARTKT/graphSMKT/smartKT/projects/SimplComprTest/lib/foo.h:28 TS 0_1_146
WRITE THREADID 0 FUNCNAME _ZN6Square10makeSquareE5Pointi FUNCNODEID 201259763495 INVNO 3 SYNCS ASYNC VARNAME s VARID 202175955133 VARCLASS NONLOCALSTACK VAROFFSET 0x3c VARFUNCNAME main VARFUNCNODEID 200954073876 VARFUNCTID 0 VARFUNCINVNO 1 INSLOC /data/user-home/srijoni/spandan/MTPSMARTKT/graphSMKT/smartKT/projects/SimplComprTest/lib/foo.cpp:9 TS 0_1_147
RETURN THREADID 0 FUNCNAME _ZN6Square10makeSquareE5Pointi FUNCNODEID 201259763495 INVNO 3 RETVAL void INSLOC /data/user-home/srijoni/spandan/MTPSMARTKT/graphSMKT/smartKT/projects/SimplComprTest/lib/foo.cpp:10 TS 0_1_148
READ THREADID 0 FUNCNAME main FUNCNODEID 200954073876 INVNO 1 SYNCS ASYNC VARNAME i VARID 203817833550 VARCLASS LOCAL VAROFFSET 0x14 INSLOC /data/user-home/srijoni/spandan/MTPSMARTKT/graphSMKT/smartKT/projects/SimplComprTest/src/main.cpp:25 TS 0_1_149
READ THREADID 0 FUNCNAME main FUNCNODEID 200954073876 INVNO 1 SYNCS ASYNC VARNAME p VARID 201191999428 VARCLASS LOCAL VAROFFSET 0x4c INSLOC /data/user-home/srijoni/spandan/MTPSMARTKT/graphSMKT/smartKT/projects/SimplComprTest/src/main.cpp:25 TS 0_1_150
CALL THREADID 0  CALLERNAME main CALLERNODEID 200954073876 CALLEENAME _ZN6Circle10makeCircleE5Pointi CALLEENODEID 202942189619 INVNO 1 ARG0 UNKNOWN ARG1 UNKNOWN STATICCALL [	200980079381 c. makeCircle ( p , arrCircle [ i ] )	] INSLOC /data/user-home/srijoni/spandan/MTPSMARTKT/graphSMKT/smartKT/projects/SimplComprTest/src/main.cpp:25 TS 0_1_151
CALL THREADID 0  CALLERNAME _ZN6Circle10makeCircleE5Pointi CALLERNODEID 202942189619 CALLEENAME _ZN4Base8setPointE5Point CALLEENODEID 203738238113 INVNO 3 ARG0 UNKNOWN STATICCALL [	103580314387 setPoint( llp )	] INSLOC /data/user-home/srijoni/spandan/MTPSMARTKT/graphSMKT/smartKT/projects/SimplComprTest/lib/foo.cpp:13 TS 0_1_152
WRITE THREADID 0 FUNCNAME _ZN4Base8setPointE5Point FUNCNODEID 203738238113 INVNO 6 SYNCS ASYNC VARNAME c VARID 203443302841 VARCLASS NONLOCALSTACK VAROFFSET 0x38 VARFUNCNAME main VARFUNCNODEID 200954073876 VARFUNCTID 0 VARFUNCINVNO 1 INSLOC /data/user-home/srijoni/spandan/MTPSMARTKT/graphSMKT/smartKT/projects/SimplComprTest/lib/foo.h:28 TS 0_1_153
RETURN THREADID 0 FUNCNAME _ZN4Base8setPointE5Point FUNCNODEID 203738238113 INVNO 6 RETVAL void INSLOC /data/user-home/srijoni/spandan/MTPSMARTKT/graphSMKT/smartKT/projects/SimplComprTest/lib/foo.h:28 TS 0_1_154
WRITE THREADID 0 FUNCNAME _ZN6Circle10makeCircleE5Pointi FUNCNODEID 202942189619 INVNO 3 SYNCS ASYNC VARNAME c VARID 203443302841 VARCLASS NONLOCALSTACK VAROFFSET 0x30 VARFUNCNAME main VARFUNCNODEID 200954073876 VARFUNCTID 0 VARFUNCINVNO 1 INSLOC /data/user-home/srijoni/spandan/MTPSMARTKT/graphSMKT/smartKT/projects/SimplComprTest/lib/foo.cpp:14 TS 0_1_155
RETURN THREADID 0 FUNCNAME _ZN6Circle10makeCircleE5Pointi FUNCNODEID 202942189619 INVNO 3 RETVAL void INSLOC /data/user-home/srijoni/spandan/MTPSMARTKT/graphSMKT/smartKT/projects/SimplComprTest/lib/foo.cpp:15 TS 0_1_156
READ THREADID 0 FUNCNAME main FUNCNODEID 200954073876 INVNO 1 SYNCS ASYNC VARNAME i VARID 203817833550 VARCLASS LOCAL VAROFFSET 0x14 INSLOC /data/user-home/srijoni/spandan/MTPSMARTKT/graphSMKT/smartKT/projects/SimplComprTest/src/main.cpp:26 TS 0_1_157
WRITE THREADID 0 FUNCNAME main FUNCNODEID 200954073876 INVNO 1 SYNCS ASYNC VARNAME i VARID 203817833550 VARCLASS LOCAL VAROFFSET 0x14 INSLOC /data/user-home/srijoni/spandan/MTPSMARTKT/graphSMKT/smartKT/projects/SimplComprTest/src/main.cpp:26 TS 0_1_158
READ THREADID 0 FUNCNAME main FUNCNODEID 200954073876 INVNO 1 SYNCS ASYNC VARNAME s VARID 202175955133 VARCLASS LOCAL VAROFFSET 0x44 INSLOC /data/user-home/srijoni/spandan/MTPSMARTKT/graphSMKT/smartKT/projects/SimplComprTest/src/main.cpp:27 TS 0_1_159
READ THREADID 0 FUNCNAME main FUNCNODEID 200954073876 INVNO 1 SYNCS ASYNC VARNAME s VARID 202175955133 VARCLASS LOCAL VAROFFSET 0x3c INSLOC /data/user-home/srijoni/spandan/MTPSMARTKT/graphSMKT/smartKT/projects/SimplComprTest/src/main.cpp:27 TS 0_1_160
READ THREADID 0 FUNCNAME main FUNCNODEID 200954073876 INVNO 1 SYNCS ASYNC VARNAME c VARID 203443302841 VARCLASS LOCAL VAROFFSET 0x38 INSLOC /data/user-home/srijoni/spandan/MTPSMARTKT/graphSMKT/smartKT/projects/SimplComprTest/src/main.cpp:27 TS 0_1_161
READ THREADID 0 FUNCNAME main FUNCNODEID 200954073876 INVNO 1 SYNCS ASYNC VARNAME c VARID 203443302841 VARCLASS LOCAL VAROFFSET 0x30 INSLOC /data/user-home/srijoni/spandan/MTPSMARTKT/graphSMKT/smartKT/projects/SimplComprTest/src/main.cpp:27 TS 0_1_162
CALL THREADID 0  CALLERNAME main CALLERNODEID 200954073876 CALLEENAME _Z7compare6Circle6Square CALLEENODEID 202854211754 INVNO 1 ARG0 UNKNOWN ARG1 UNKNOWN STATICCALL [	201645446226 compare( c , s )	] INSLOC /data/user-home/srijoni/spandan/MTPSMARTKT/graphSMKT/smartKT/projects/SimplComprTest/src/main.cpp:27 TS 0_1_163
CALL THREADID 0  CALLERNAME _Z7compare6Circle6Square CALLERNODEID 202854211754 CALLEENAME _Z4area6Circle CALLEENODEID 203223302425 INVNO 3 ARG0 UNKNOWN STATICCALL [	202120372487 area( c )	] INSLOC /data/user-home/srijoni/spandan/MTPSMARTKT/graphSMKT/smartKT/projects/SimplComprTest/src/main.cpp:4 TS 0_1_164
RETURN THREADID 0 FUNCNAME _Z4area6Circle FUNCNODEID 203223302425 INVNO 3 RETVAL 27 INSLOC /data/user-home/srijoni/spandan/MTPSMARTKT/graphSMKT/smartKT/projects/SimplComprTest/src/helper.cpp:5 TS 0_1_165
CALL THREADID 0  CALLERNAME _Z7compare6Circle6Square CALLERNODEID 202854211754 CALLEENAME _Z4area6Square CALLEENODEID 202772255989 INVNO 3 ARG0 UNKNOWN STATICCALL [	204149763127 area( s )	] INSLOC /data/user-home/srijoni/spandan/MTPSMARTKT/graphSMKT/smartKT/projects/SimplComprTest/src/main.cpp:4 TS 0_1_166
RETURN THREADID 0 FUNCNAME _Z4area6Square FUNCNODEID 202772255989 INVNO 3 RETVAL 16 INSLOC /data/user-home/srijoni/spandan/MTPSMARTKT/graphSMKT/smartKT/projects/SimplComprTest/lib/foo.cpp:19 TS 0_1_167
CALL THREADID 0  CALLERNAME _Z7compare6Circle6Square CALLERNODEID 202854211754 CALLEENAME _ZN6SquareD2Ev INVNO 3 ARGS NONE STATICCALL [	] INSLOC /data/user-home/srijoni/spandan/MTPSMARTKT/graphSMKT/smartKT/projects/SimplComprTest/src/main.cpp:4 TS 0_1_168
CALL THREADID 0  CALLERNAME _ZN6SquareD2Ev CALLEENAME _ZN4BaseD2Ev CALLEENODEID 200897991887 INVNO 5 ARGS NONE STATICCALL [	] INSLOC /data/user-home/srijoni/spandan/MTPSMARTKT/graphSMKT/smartKT/projects/SimplComprTest/lib/foo.h:34 TS 0_1_169
READ THREADID 0 FUNCNAME _ZN4BaseD2Ev FUNCNODEID 200897991887 INVNO 9 SYNCS ASYNC VARNAME _ZN4Base5countE VARID 201233933708 VARCLASS CLASSSTATIC VARADDRESS 0x6020b4 VARCONTAINERNAME Base VARCONTAINERNODEID 200974653263 INSLOC /data/user-home/srijoni/spandan/MTPSMARTKT/graphSMKT/smartKT/projects/SimplComprTest/lib/foo.h:25 TS 0_1_170
WRITE THREADID 0 FUNCNAME _ZN4BaseD2Ev FUNCNODEID 200897991887 INVNO 9 SYNCS ASYNC VARNAME _ZN4Base5countE VARID 201233933708 VARCLASS CLASSSTATIC VARADDRESS 0x6020b4 VARCONTAINERNAME Base VARCONTAINERNODEID 200974653263 INSLOC /data/user-home/srijoni/spandan/MTPSMARTKT/graphSMKT/smartKT/projects/SimplComprTest/lib/foo.h:25 TS 0_1_171
RETURN THREADID 0 FUNCNAME _ZN4BaseD2Ev FUNCNODEID 200897991887 INVNO 9 RETVAL UNKNOWN INSLOC /data/user-home/srijoni/spandan/MTPSMARTKT/graphSMKT/smartKT/projects/SimplComprTest/lib/foo.h:26 TS 0_1_172
RETURN THREADID 0 FUNCNAME _ZN6SquareD2Ev INVNO 5 INSLOC /data/user-home/srijoni/spandan/MTPSMARTKT/graphSMKT/smartKT/projects/SimplComprTest/lib/foo.h:34 TS 0_1_173
CALL THREADID 0  CALLERNAME _Z7compare6Circle6Square CALLERNODEID 202854211754 CALLEENAME _ZN6CircleD2Ev INVNO 3 ARGS NONE STATICCALL [	] INSLOC /data/user-home/srijoni/spandan/MTPSMARTKT/graphSMKT/smartKT/projects/SimplComprTest/src/main.cpp:4 TS 0_1_174
CALL THREADID 0  CALLERNAME _ZN6CircleD2Ev CALLEENAME _ZN4BaseD2Ev CALLEENODEID 200897991887 INVNO 5 ARGS NONE STATICCALL [	] INSLOC /data/user-home/srijoni/spandan/MTPSMARTKT/graphSMKT/smartKT/projects/SimplComprTest/lib/foo.h:41 TS 0_1_175
READ THREADID 0 FUNCNAME _ZN4BaseD2Ev FUNCNODEID 200897991887 INVNO 10 SYNCS ASYNC VARNAME _ZN4Base5countE VARID 201233933708 VARCLASS CLASSSTATIC VARADDRESS 0x6020b4 VARCONTAINERNAME Base VARCONTAINERNODEID 200974653263 INSLOC /data/user-home/srijoni/spandan/MTPSMARTKT/graphSMKT/smartKT/projects/SimplComprTest/lib/foo.h:25 TS 0_1_176
WRITE THREADID 0 FUNCNAME _ZN4BaseD2Ev FUNCNODEID 200897991887 INVNO 10 SYNCS ASYNC VARNAME _ZN4Base5countE VARID 201233933708 VARCLASS CLASSSTATIC VARADDRESS 0x6020b4 VARCONTAINERNAME Base VARCONTAINERNODEID 200974653263 INSLOC /data/user-home/srijoni/spandan/MTPSMARTKT/graphSMKT/smartKT/projects/SimplComprTest/lib/foo.h:25 TS 0_1_177
RETURN THREADID 0 FUNCNAME _ZN4BaseD2Ev FUNCNODEID 200897991887 INVNO 10 RETVAL UNKNOWN INSLOC /data/user-home/srijoni/spandan/MTPSMARTKT/graphSMKT/smartKT/projects/SimplComprTest/lib/foo.h:26 TS 0_1_178
RETURN THREADID 0 FUNCNAME _ZN6CircleD2Ev INVNO 5 INSLOC /data/user-home/srijoni/spandan/MTPSMARTKT/graphSMKT/smartKT/projects/SimplComprTest/lib/foo.h:41 TS 0_1_179
RETURN THREADID 0 FUNCNAME _Z7compare6Circle6Square FUNCNODEID 202854211754 INVNO 3 RETVAL 1 INSLOC /data/user-home/srijoni/spandan/MTPSMARTKT/graphSMKT/smartKT/projects/SimplComprTest/src/main.cpp:9 TS 0_1_180
CALL THREADID 0  CALLERNAME main CALLERNODEID 200954073876 CALLEENAME _ZN6CircleD2Ev INVNO 1 ARGS NONE STATICCALL [	] INSLOC /data/user-home/srijoni/spandan/MTPSMARTKT/graphSMKT/smartKT/projects/SimplComprTest/src/main.cpp:27 TS 0_1_181
CALL THREADID 0  CALLERNAME _ZN6CircleD2Ev CALLEENAME _ZN4BaseD2Ev CALLEENODEID 200897991887 INVNO 6 ARGS NONE STATICCALL [	] INSLOC /data/user-home/srijoni/spandan/MTPSMARTKT/graphSMKT/smartKT/projects/SimplComprTest/lib/foo.h:41 TS 0_1_182
READ THREADID 0 FUNCNAME _ZN4BaseD2Ev FUNCNODEID 200897991887 INVNO 11 SYNCS ASYNC VARNAME _ZN4Base5countE VARID 201233933708 VARCLASS CLASSSTATIC VARADDRESS 0x6020b4 VARCONTAINERNAME Base VARCONTAINERNODEID 200974653263 INSLOC /data/user-home/srijoni/spandan/MTPSMARTKT/graphSMKT/smartKT/projects/SimplComprTest/lib/foo.h:25 TS 0_1_183
WRITE THREADID 0 FUNCNAME _ZN4BaseD2Ev FUNCNODEID 200897991887 INVNO 11 SYNCS ASYNC VARNAME _ZN4Base5countE VARID 201233933708 VARCLASS CLASSSTATIC VARADDRESS 0x6020b4 VARCONTAINERNAME Base VARCONTAINERNODEID 200974653263 INSLOC /data/user-home/srijoni/spandan/MTPSMARTKT/graphSMKT/smartKT/projects/SimplComprTest/lib/foo.h:25 TS 0_1_184
RETURN THREADID 0 FUNCNAME _ZN4BaseD2Ev FUNCNODEID 200897991887 INVNO 11 RETVAL UNKNOWN INSLOC /data/user-home/srijoni/spandan/MTPSMARTKT/graphSMKT/smartKT/projects/SimplComprTest/lib/foo.h:26 TS 0_1_185
RETURN THREADID 0 FUNCNAME _ZN6CircleD2Ev INVNO 6 INSLOC /data/user-home/srijoni/spandan/MTPSMARTKT/graphSMKT/smartKT/projects/SimplComprTest/lib/foo.h:41 TS 0_1_186
CALL THREADID 0  CALLERNAME main CALLERNODEID 200954073876 CALLEENAME _ZN6SquareD2Ev INVNO 1 ARGS NONE STATICCALL [	] INSLOC /data/user-home/srijoni/spandan/MTPSMARTKT/graphSMKT/smartKT/projects/SimplComprTest/src/main.cpp:27 TS 0_1_187
CALL THREADID 0  CALLERNAME _ZN6SquareD2Ev CALLEENAME _ZN4BaseD2Ev CALLEENODEID 200897991887 INVNO 6 ARGS NONE STATICCALL [	] INSLOC /data/user-home/srijoni/spandan/MTPSMARTKT/graphSMKT/smartKT/projects/SimplComprTest/lib/foo.h:34 TS 0_1_188
READ THREADID 0 FUNCNAME _ZN4BaseD2Ev FUNCNODEID 200897991887 INVNO 12 SYNCS ASYNC VARNAME _ZN4Base5countE VARID 201233933708 VARCLASS CLASSSTATIC VARADDRESS 0x6020b4 VARCONTAINERNAME Base VARCONTAINERNODEID 200974653263 INSLOC /data/user-home/srijoni/spandan/MTPSMARTKT/graphSMKT/smartKT/projects/SimplComprTest/lib/foo.h:25 TS 0_1_189
WRITE THREADID 0 FUNCNAME _ZN4BaseD2Ev FUNCNODEID 200897991887 INVNO 12 SYNCS ASYNC VARNAME _ZN4Base5countE VARID 201233933708 VARCLASS CLASSSTATIC VARADDRESS 0x6020b4 VARCONTAINERNAME Base VARCONTAINERNODEID 200974653263 INSLOC /data/user-home/srijoni/spandan/MTPSMARTKT/graphSMKT/smartKT/projects/SimplComprTest/lib/foo.h:25 TS 0_1_190
RETURN THREADID 0 FUNCNAME _ZN4BaseD2Ev FUNCNODEID 200897991887 INVNO 12 RETVAL UNKNOWN INSLOC /data/user-home/srijoni/spandan/MTPSMARTKT/graphSMKT/smartKT/projects/SimplComprTest/lib/foo.h:26 TS 0_1_191
RETURN THREADID 0 FUNCNAME _ZN6SquareD2Ev INVNO 6 INSLOC /data/user-home/srijoni/spandan/MTPSMARTKT/graphSMKT/smartKT/projects/SimplComprTest/lib/foo.h:34 TS 0_1_192
CALL THREADID 0  CALLERNAME main CALLERNODEID 200954073876 CALLEENAME _ZN5Point16hamming_distanceEv CALLEENODEID 203957353938 INVNO 1 ARGS NONE STATICCALL [	203800700125 c. p . hamming_distance ( )	] INSLOC /data/user-home/srijoni/spandan/MTPSMARTKT/graphSMKT/smartKT/projects/SimplComprTest/src/main.cpp:28 TS 0_1_193
READ THREADID 0 FUNCNAME _ZN5Point16hamming_distanceEv FUNCNODEID 203957353938 INVNO 1 SYNCS ASYNC VARNAME c VARID 203443302841 VARCLASS NONLOCALSTACK VAROFFSET 0x38 VARFUNCNAME main VARFUNCNODEID 200954073876 VARFUNCTID 0 VARFUNCINVNO 1 INSLOC /data/user-home/srijoni/spandan/MTPSMARTKT/graphSMKT/smartKT/projects/SimplComprTest/lib/foo.cpp:4 TS 0_1_194
READ THREADID 0 FUNCNAME _ZN5Point16hamming_distanceEv FUNCNODEID 203957353938 INVNO 1 SYNCS ASYNC VARNAME c VARID 203443302841 VARCLASS NONLOCALSTACK VAROFFSET 0x34 VARFUNCNAME main VARFUNCNODEID 200954073876 VARFUNCTID 0 VARFUNCINVNO 1 INSLOC /data/user-home/srijoni/spandan/MTPSMARTKT/graphSMKT/smartKT/projects/SimplComprTest/lib/foo.cpp:4 TS 0_1_195
READ THREADID 0 FUNCNAME _ZN5Point16hamming_distanceEv FUNCNODEID 203957353938 INVNO 1 SYNCS ASYNC VARNAME c VARID 203443302841 VARCLASS NONLOCALSTACK VAROFFSET 0x38 VARFUNCNAME main VARFUNCNODEID 200954073876 VARFUNCTID 0 VARFUNCINVNO 1 INSLOC /data/user-home/srijoni/spandan/MTPSMARTKT/graphSMKT/smartKT/projects/SimplComprTest/lib/foo.cpp:4 TS 0_1_196
READ THREADID 0 FUNCNAME _ZN5Point16hamming_distanceEv FUNCNODEID 203957353938 INVNO 1 SYNCS ASYNC VARNAME c VARID 203443302841 VARCLASS NONLOCALSTACK VAROFFSET 0x34 VARFUNCNAME main VARFUNCNODEID 200954073876 VARFUNCTID 0 VARFUNCINVNO 1 INSLOC /data/user-home/srijoni/spandan/MTPSMARTKT/graphSMKT/smartKT/projects/SimplComprTest/lib/foo.cpp:4 TS 0_1_197
RETURN THREADID 0 FUNCNAME _ZN5Point16hamming_distanceEv FUNCNODEID 203957353938 INVNO 1 RETVAL UNKNOWN INSLOC /data/user-home/srijoni/spandan/MTPSMARTKT/graphSMKT/smartKT/projects/SimplComprTest/lib/foo.cpp:5 TS 0_1_198
READ THREADID 0 FUNCNAME main FUNCNODEID 200954073876 INVNO 1 SYNCS ASYNC VARNAME count VARID 301246238228 VARCLASS GLOBAL VARADDRESS 0x6020bc INSLOC /data/user-home/srijoni/spandan/MTPSMARTKT/graphSMKT/smartKT/projects/SimplComprTest/src/main.cpp:28 TS 0_1_199
WRITE THREADID 0 FUNCNAME main FUNCNODEID 200954073876 INVNO 1 SYNCS ASYNC VARNAME count VARID 301246238228 VARCLASS GLOBAL VARADDRESS 0x6020bc INSLOC /data/user-home/srijoni/spandan/MTPSMARTKT/graphSMKT/smartKT/projects/SimplComprTest/src/main.cpp:28 TS 0_1_200
READ THREADID 0 FUNCNAME main FUNCNODEID 200954073876 INVNO 1 SYNCS ASYNC VARNAME maxele VARID 201184962880 VARCLASS GLOBAL VARADDRESS 0x602070 INSLOC /data/user-home/srijoni/spandan/MTPSMARTKT/graphSMKT/smartKT/projects/SimplComprTest/src/main.cpp:23 TS 0_1_201
READ THREADID 0 FUNCNAME main FUNCNODEID 200954073876 INVNO 1 SYNCS ASYNC VARNAME i VARID 203817833550 VARCLASS LOCAL VAROFFSET 0x14 INSLOC /data/user-home/srijoni/spandan/MTPSMARTKT/graphSMKT/smartKT/projects/SimplComprTest/src/main.cpp:23 TS 0_1_202
READ THREADID 0 FUNCNAME main FUNCNODEID 200954073876 INVNO 1 SYNCS ASYNC VARNAME i VARID 203817833550 VARCLASS LOCAL VAROFFSET 0x14 INSLOC /data/user-home/srijoni/spandan/MTPSMARTKT/graphSMKT/smartKT/projects/SimplComprTest/src/main.cpp:24 TS 0_1_203
READ THREADID 0 FUNCNAME main FUNCNODEID 200954073876 INVNO 1 SYNCS ASYNC VARNAME p VARID 201191999428 VARCLASS LOCAL VAROFFSET 0x4c INSLOC /data/user-home/srijoni/spandan/MTPSMARTKT/graphSMKT/smartKT/projects/SimplComprTest/src/main.cpp:24 TS 0_1_204
CALL THREADID 0  CALLERNAME main CALLERNODEID 200954073876 CALLEENAME _ZN6Square10makeSquareE5Pointi CALLEENODEID 201259763495 INVNO 1 ARG0 UNKNOWN ARG1 UNKNOWN STATICCALL [	202520103208 s. makeSquare ( p , arrSquare [ i ] )	] INSLOC /data/user-home/srijoni/spandan/MTPSMARTKT/graphSMKT/smartKT/projects/SimplComprTest/src/main.cpp:24 TS 0_1_205
CALL THREADID 0  CALLERNAME _ZN6Square10makeSquareE5Pointi CALLERNODEID 201259763495 CALLEENAME _ZN4Base8setPointE5Point CALLEENODEID 203738238113 INVNO 4 ARG0 UNKNOWN STATICCALL [	102213970836 setPoint( llp )	] INSLOC /data/user-home/srijoni/spandan/MTPSMARTKT/graphSMKT/smartKT/projects/SimplComprTest/lib/foo.cpp:8 TS 0_1_206
WRITE THREADID 0 FUNCNAME _ZN4Base8setPointE5Point FUNCNODEID 203738238113 INVNO 7 SYNCS ASYNC VARNAME s VARID 202175955133 VARCLASS NONLOCALSTACK VAROFFSET 0x44 VARFUNCNAME main VARFUNCNODEID 200954073876 VARFUNCTID 0 VARFUNCINVNO 1 INSLOC /data/user-home/srijoni/spandan/MTPSMARTKT/graphSMKT/smartKT/projects/SimplComprTest/lib/foo.h:28 TS 0_1_207
RETURN THREADID 0 FUNCNAME _ZN4Base8setPointE5Point FUNCNODEID 203738238113 INVNO 7 RETVAL void INSLOC /data/user-home/srijoni/spandan/MTPSMARTKT/graphSMKT/smartKT/projects/SimplComprTest/lib/foo.h:28 TS 0_1_208
WRITE THREADID 0 FUNCNAME _ZN6Square10makeSquareE5Pointi FUNCNODEID 201259763495 INVNO 4 SYNCS ASYNC VARNAME s VARID 202175955133 VARCLASS NONLOCALSTACK VAROFFSET 0x3c VARFUNCNAME main VARFUNCNODEID 200954073876 VARFUNCTID 0 VARFUNCINVNO 1 INSLOC /data/user-home/srijoni/spandan/MTPSMARTKT/graphSMKT/smartKT/projects/SimplComprTest/lib/foo.cpp:9 TS 0_1_209
RETURN THREADID 0 FUNCNAME _ZN6Square10makeSquareE5Pointi FUNCNODEID 201259763495 INVNO 4 RETVAL void INSLOC /data/user-home/srijoni/spandan/MTPSMARTKT/graphSMKT/smartKT/projects/SimplComprTest/lib/foo.cpp:10 TS 0_1_210
READ THREADID 0 FUNCNAME main FUNCNODEID 200954073876 INVNO 1 SYNCS ASYNC VARNAME i VARID 203817833550 VARCLASS LOCAL VAROFFSET 0x14 INSLOC /data/user-home/srijoni/spandan/MTPSMARTKT/graphSMKT/smartKT/projects/SimplComprTest/src/main.cpp:25 TS 0_1_211
READ THREADID 0 FUNCNAME main FUNCNODEID 200954073876 INVNO 1 SYNCS ASYNC VARNAME p VARID 201191999428 VARCLASS LOCAL VAROFFSET 0x4c INSLOC /data/user-home/srijoni/spandan/MTPSMARTKT/graphSMKT/smartKT/projects/SimplComprTest/src/main.cpp:25 TS 0_1_212
CALL THREADID 0  CALLERNAME main CALLERNODEID 200954073876 CALLEENAME _ZN6Circle10makeCircleE5Pointi CALLEENODEID 202942189619 INVNO 1 ARG0 UNKNOWN ARG1 UNKNOWN STATICCALL [	200980079381 c. makeCircle ( p , arrCircle [ i ] )	] INSLOC /data/user-home/srijoni/spandan/MTPSMARTKT/graphSMKT/smartKT/projects/SimplComprTest/src/main.cpp:25 TS 0_1_213
CALL THREADID 0  CALLERNAME _ZN6Circle10makeCircleE5Pointi CALLERNODEID 202942189619 CALLEENAME _ZN4Base8setPointE5Point CALLEENODEID 203738238113 INVNO 4 ARG0 UNKNOWN STATICCALL [	103580314387 setPoint( llp )	] INSLOC /data/user-home/srijoni/spandan/MTPSMARTKT/graphSMKT/smartKT/projects/SimplComprTest/lib/foo.cpp:13 TS 0_1_214
WRITE THREADID 0 FUNCNAME _ZN4Base8setPointE5Point FUNCNODEID 203738238113 INVNO 8 SYNCS ASYNC VARNAME c VARID 203443302841 VARCLASS NONLOCALSTACK VAROFFSET 0x38 VARFUNCNAME main VARFUNCNODEID 200954073876 VARFUNCTID 0 VARFUNCINVNO 1 INSLOC /data/user-home/srijoni/spandan/MTPSMARTKT/graphSMKT/smartKT/projects/SimplComprTest/lib/foo.h:28 TS 0_1_215
RETURN THREADID 0 FUNCNAME _ZN4Base8setPointE5Point FUNCNODEID 203738238113 INVNO 8 RETVAL void INSLOC /data/user-home/srijoni/spandan/MTPSMARTKT/graphSMKT/smartKT/projects/SimplComprTest/lib/foo.h:28 TS 0_1_216
WRITE THREADID 0 FUNCNAME _ZN6Circle10makeCircleE5Pointi FUNCNODEID 202942189619 INVNO 4 SYNCS ASYNC VARNAME c VARID 203443302841 VARCLASS NONLOCALSTACK VAROFFSET 0x30 VARFUNCNAME main VARFUNCNODEID 200954073876 VARFUNCTID 0 VARFUNCINVNO 1 INSLOC /data/user-home/srijoni/spandan/MTPSMARTKT/graphSMKT/smartKT/projects/SimplComprTest/lib/foo.cpp:14 TS 0_1_217
RETURN THREADID 0 FUNCNAME _ZN6Circle10makeCircleE5Pointi FUNCNODEID 202942189619 INVNO 4 RETVAL void INSLOC /data/user-home/srijoni/spandan/MTPSMARTKT/graphSMKT/smartKT/projects/SimplComprTest/lib/foo.cpp:15 TS 0_1_218
READ THREADID 0 FUNCNAME main FUNCNODEID 200954073876 INVNO 1 SYNCS ASYNC VARNAME i VARID 203817833550 VARCLASS LOCAL VAROFFSET 0x14 INSLOC /data/user-home/srijoni/spandan/MTPSMARTKT/graphSMKT/smartKT/projects/SimplComprTest/src/main.cpp:26 TS 0_1_219
WRITE THREADID 0 FUNCNAME main FUNCNODEID 200954073876 INVNO 1 SYNCS ASYNC VARNAME i VARID 203817833550 VARCLASS LOCAL VAROFFSET 0x14 INSLOC /data/user-home/srijoni/spandan/MTPSMARTKT/graphSMKT/smartKT/projects/SimplComprTest/src/main.cpp:26 TS 0_1_220
READ THREADID 0 FUNCNAME main FUNCNODEID 200954073876 INVNO 1 SYNCS ASYNC VARNAME s VARID 202175955133 VARCLASS LOCAL VAROFFSET 0x44 INSLOC /data/user-home/srijoni/spandan/MTPSMARTKT/graphSMKT/smartKT/projects/SimplComprTest/src/main.cpp:27 TS 0_1_221
READ THREADID 0 FUNCNAME main FUNCNODEID 200954073876 INVNO 1 SYNCS ASYNC VARNAME s VARID 202175955133 VARCLASS LOCAL VAROFFSET 0x3c INSLOC /data/user-home/srijoni/spandan/MTPSMARTKT/graphSMKT/smartKT/projects/SimplComprTest/src/main.cpp:27 TS 0_1_222
READ THREADID 0 FUNCNAME main FUNCNODEID 200954073876 INVNO 1 SYNCS ASYNC VARNAME c VARID 203443302841 VARCLASS LOCAL VAROFFSET 0x38 INSLOC /data/user-home/srijoni/spandan/MTPSMARTKT/graphSMKT/smartKT/projects/SimplComprTest/src/main.cpp:27 TS 0_1_223
READ THREADID 0 FUNCNAME main FUNCNODEID 200954073876 INVNO 1 SYNCS ASYNC VARNAME c VARID 203443302841 VARCLASS LOCAL VAROFFSET 0x30 INSLOC /data/user-home/srijoni/spandan/MTPSMARTKT/graphSMKT/smartKT/projects/SimplComprTest/src/main.cpp:27 TS 0_1_224
CALL THREADID 0  CALLERNAME main CALLERNODEID 200954073876 CALLEENAME _Z7compare6Circle6Square CALLEENODEID 202854211754 INVNO 1 ARG0 UNKNOWN ARG1 UNKNOWN STATICCALL [	201645446226 compare( c , s )	] INSLOC /data/user-home/srijoni/spandan/MTPSMARTKT/graphSMKT/smartKT/projects/SimplComprTest/src/main.cpp:27 TS 0_1_225
CALL THREADID 0  CALLERNAME _Z7compare6Circle6Square CALLERNODEID 202854211754 CALLEENAME _Z4area6Circle CALLEENODEID 203223302425 INVNO 4 ARG0 UNKNOWN STATICCALL [	202120372487 area( c )	] INSLOC /data/user-home/srijoni/spandan/MTPSMARTKT/graphSMKT/smartKT/projects/SimplComprTest/src/main.cpp:4 TS 0_1_226
RETURN THREADID 0 FUNCNAME _Z4area6Circle FUNCNODEID 203223302425 INVNO 4 RETVAL 48 INSLOC /data/user-home/srijoni/spandan/MTPSMARTKT/graphSMKT/smartKT/projects/SimplComprTest/src/helper.cpp:5 TS 0_1_227
CALL THREADID 0  CALLERNAME _Z7compare6Circle6Square CALLERNODEID 202854211754 CALLEENAME _Z4area6Square CALLEENODEID 202772255989 INVNO 4 ARG0 UNKNOWN STATICCALL [	204149763127 area( s )	] INSLOC /data/user-home/srijoni/spandan/MTPSMARTKT/graphSMKT/smartKT/projects/SimplComprTest/src/main.cpp:4 TS 0_1_228
RETURN THREADID 0 FUNCNAME _Z4area6Square FUNCNODEID 202772255989 INVNO 4 RETVAL 9 INSLOC /data/user-home/srijoni/spandan/MTPSMARTKT/graphSMKT/smartKT/projects/SimplComprTest/lib/foo.cpp:19 TS 0_1_229
CALL THREADID 0  CALLERNAME _Z7compare6Circle6Square CALLERNODEID 202854211754 CALLEENAME _ZN6SquareD2Ev INVNO 4 ARGS NONE STATICCALL [	] INSLOC /data/user-home/srijoni/spandan/MTPSMARTKT/graphSMKT/smartKT/projects/SimplComprTest/src/main.cpp:4 TS 0_1_230
CALL THREADID 0  CALLERNAME _ZN6SquareD2Ev CALLEENAME _ZN4BaseD2Ev CALLEENODEID 200897991887 INVNO 7 ARGS NONE STATICCALL [	] INSLOC /data/user-home/srijoni/spandan/MTPSMARTKT/graphSMKT/smartKT/projects/SimplComprTest/lib/foo.h:34 TS 0_1_231
READ THREADID 0 FUNCNAME _ZN4BaseD2Ev FUNCNODEID 200897991887 INVNO 13 SYNCS ASYNC VARNAME _ZN4Base5countE VARID 201233933708 VARCLASS CLASSSTATIC VARADDRESS 0x6020b4 VARCONTAINERNAME Base VARCONTAINERNODEID 200974653263 INSLOC /data/user-home/srijoni/spandan/MTPSMARTKT/graphSMKT/smartKT/projects/SimplComprTest/lib/foo.h:25 TS 0_1_232
WRITE THREADID 0 FUNCNAME _ZN4BaseD2Ev FUNCNODEID 200897991887 INVNO 13 SYNCS ASYNC VARNAME _ZN4Base5countE VARID 201233933708 VARCLASS CLASSSTATIC VARADDRESS 0x6020b4 VARCONTAINERNAME Base VARCONTAINERNODEID 200974653263 INSLOC /data/user-home/srijoni/spandan/MTPSMARTKT/graphSMKT/smartKT/projects/SimplComprTest/lib/foo.h:25 TS 0_1_233
RETURN THREADID 0 FUNCNAME _ZN4BaseD2Ev FUNCNODEID 200897991887 INVNO 13 RETVAL UNKNOWN INSLOC /data/user-home/srijoni/spandan/MTPSMARTKT/graphSMKT/smartKT/projects/SimplComprTest/lib/foo.h:26 TS 0_1_234
RETURN THREADID 0 FUNCNAME _ZN6SquareD2Ev INVNO 7 INSLOC /data/user-home/srijoni/spandan/MTPSMARTKT/graphSMKT/smartKT/projects/SimplComprTest/lib/foo.h:34 TS 0_1_235
CALL THREADID 0  CALLERNAME _Z7compare6Circle6Square CALLERNODEID 202854211754 CALLEENAME _ZN6CircleD2Ev INVNO 4 ARGS NONE STATICCALL [	] INSLOC /data/user-home/srijoni/spandan/MTPSMARTKT/graphSMKT/smartKT/projects/SimplComprTest/src/main.cpp:4 TS 0_1_236
CALL THREADID 0  CALLERNAME _ZN6CircleD2Ev CALLEENAME _ZN4BaseD2Ev CALLEENODEID 200897991887 INVNO 7 ARGS NONE STATICCALL [	] INSLOC /data/user-home/srijoni/spandan/MTPSMARTKT/graphSMKT/smartKT/projects/SimplComprTest/lib/foo.h:41 TS 0_1_237
READ THREADID 0 FUNCNAME _ZN4BaseD2Ev FUNCNODEID 200897991887 INVNO 14 SYNCS ASYNC VARNAME _ZN4Base5countE VARID 201233933708 VARCLASS CLASSSTATIC VARADDRESS 0x6020b4 VARCONTAINERNAME Base VARCONTAINERNODEID 200974653263 INSLOC /data/user-home/srijoni/spandan/MTPSMARTKT/graphSMKT/smartKT/projects/SimplComprTest/lib/foo.h:25 TS 0_1_238
WRITE THREADID 0 FUNCNAME _ZN4BaseD2Ev FUNCNODEID 200897991887 INVNO 14 SYNCS ASYNC VARNAME _ZN4Base5countE VARID 201233933708 VARCLASS CLASSSTATIC VARADDRESS 0x6020b4 VARCONTAINERNAME Base VARCONTAINERNODEID 200974653263 INSLOC /data/user-home/srijoni/spandan/MTPSMARTKT/graphSMKT/smartKT/projects/SimplComprTest/lib/foo.h:25 TS 0_1_239
RETURN THREADID 0 FUNCNAME _ZN4BaseD2Ev FUNCNODEID 200897991887 INVNO 14 RETVAL UNKNOWN INSLOC /data/user-home/srijoni/spandan/MTPSMARTKT/graphSMKT/smartKT/projects/SimplComprTest/lib/foo.h:26 TS 0_1_240
RETURN THREADID 0 FUNCNAME _ZN6CircleD2Ev INVNO 7 INSLOC /data/user-home/srijoni/spandan/MTPSMARTKT/graphSMKT/smartKT/projects/SimplComprTest/lib/foo.h:41 TS 0_1_241
RETURN THREADID 0 FUNCNAME _Z7compare6Circle6Square FUNCNODEID 202854211754 INVNO 4 RETVAL 1 INSLOC /data/user-home/srijoni/spandan/MTPSMARTKT/graphSMKT/smartKT/projects/SimplComprTest/src/main.cpp:9 TS 0_1_242
CALL THREADID 0  CALLERNAME main CALLERNODEID 200954073876 CALLEENAME _ZN6CircleD2Ev INVNO 1 ARGS NONE STATICCALL [	] INSLOC /data/user-home/srijoni/spandan/MTPSMARTKT/graphSMKT/smartKT/projects/SimplComprTest/src/main.cpp:27 TS 0_1_243
CALL THREADID 0  CALLERNAME _ZN6CircleD2Ev CALLEENAME _ZN4BaseD2Ev CALLEENODEID 200897991887 INVNO 8 ARGS NONE STATICCALL [	] INSLOC /data/user-home/srijoni/spandan/MTPSMARTKT/graphSMKT/smartKT/projects/SimplComprTest/lib/foo.h:41 TS 0_1_244
READ THREADID 0 FUNCNAME _ZN4BaseD2Ev FUNCNODEID 200897991887 INVNO 15 SYNCS ASYNC VARNAME _ZN4Base5countE VARID 201233933708 VARCLASS CLASSSTATIC VARADDRESS 0x6020b4 VARCONTAINERNAME Base VARCONTAINERNODEID 200974653263 INSLOC /data/user-home/srijoni/spandan/MTPSMARTKT/graphSMKT/smartKT/projects/SimplComprTest/lib/foo.h:25 TS 0_1_245
WRITE THREADID 0 FUNCNAME _ZN4BaseD2Ev FUNCNODEID 200897991887 INVNO 15 SYNCS ASYNC VARNAME _ZN4Base5countE VARID 201233933708 VARCLASS CLASSSTATIC VARADDRESS 0x6020b4 VARCONTAINERNAME Base VARCONTAINERNODEID 200974653263 INSLOC /data/user-home/srijoni/spandan/MTPSMARTKT/graphSMKT/smartKT/projects/SimplComprTest/lib/foo.h:25 TS 0_1_246
RETURN THREADID 0 FUNCNAME _ZN4BaseD2Ev FUNCNODEID 200897991887 INVNO 15 RETVAL UNKNOWN INSLOC /data/user-home/srijoni/spandan/MTPSMARTKT/graphSMKT/smartKT/projects/SimplComprTest/lib/foo.h:26 TS 0_1_247
RETURN THREADID 0 FUNCNAME _ZN6CircleD2Ev INVNO 8 INSLOC /data/user-home/srijoni/spandan/MTPSMARTKT/graphSMKT/smartKT/projects/SimplComprTest/lib/foo.h:41 TS 0_1_248
CALL THREADID 0  CALLERNAME main CALLERNODEID 200954073876 CALLEENAME _ZN6SquareD2Ev INVNO 1 ARGS NONE STATICCALL [	] INSLOC /data/user-home/srijoni/spandan/MTPSMARTKT/graphSMKT/smartKT/projects/SimplComprTest/src/main.cpp:27 TS 0_1_249
CALL THREADID 0  CALLERNAME _ZN6SquareD2Ev CALLEENAME _ZN4BaseD2Ev CALLEENODEID 200897991887 INVNO 8 ARGS NONE STATICCALL [	] INSLOC /data/user-home/srijoni/spandan/MTPSMARTKT/graphSMKT/smartKT/projects/SimplComprTest/lib/foo.h:34 TS 0_1_250
READ THREADID 0 FUNCNAME _ZN4BaseD2Ev FUNCNODEID 200897991887 INVNO 16 SYNCS ASYNC VARNAME _ZN4Base5countE VARID 201233933708 VARCLASS CLASSSTATIC VARADDRESS 0x6020b4 VARCONTAINERNAME Base VARCONTAINERNODEID 200974653263 INSLOC /data/user-home/srijoni/spandan/MTPSMARTKT/graphSMKT/smartKT/projects/SimplComprTest/lib/foo.h:25 TS 0_1_251
WRITE THREADID 0 FUNCNAME _ZN4BaseD2Ev FUNCNODEID 200897991887 INVNO 16 SYNCS ASYNC VARNAME _ZN4Base5countE VARID 201233933708 VARCLASS CLASSSTATIC VARADDRESS 0x6020b4 VARCONTAINERNAME Base VARCONTAINERNODEID 200974653263 INSLOC /data/user-home/srijoni/spandan/MTPSMARTKT/graphSMKT/smartKT/projects/SimplComprTest/lib/foo.h:25 TS 0_1_252
RETURN THREADID 0 FUNCNAME _ZN4BaseD2Ev FUNCNODEID 200897991887 INVNO 16 RETVAL UNKNOWN INSLOC /data/user-home/srijoni/spandan/MTPSMARTKT/graphSMKT/smartKT/projects/SimplComprTest/lib/foo.h:26 TS 0_1_253
RETURN THREADID 0 FUNCNAME _ZN6SquareD2Ev INVNO 8 INSLOC /data/user-home/srijoni/spandan/MTPSMARTKT/graphSMKT/smartKT/projects/SimplComprTest/lib/foo.h:34 TS 0_1_254
CALL THREADID 0  CALLERNAME main CALLERNODEID 200954073876 CALLEENAME _ZN5Point16hamming_distanceEv CALLEENODEID 203957353938 INVNO 1 ARGS NONE STATICCALL [	203800700125 c. p . hamming_distance ( )	] INSLOC /data/user-home/srijoni/spandan/MTPSMARTKT/graphSMKT/smartKT/projects/SimplComprTest/src/main.cpp:28 TS 0_1_255
READ THREADID 0 FUNCNAME _ZN5Point16hamming_distanceEv FUNCNODEID 203957353938 INVNO 2 SYNCS ASYNC VARNAME c VARID 203443302841 VARCLASS NONLOCALSTACK VAROFFSET 0x38 VARFUNCNAME main VARFUNCNODEID 200954073876 VARFUNCTID 0 VARFUNCINVNO 1 INSLOC /data/user-home/srijoni/spandan/MTPSMARTKT/graphSMKT/smartKT/projects/SimplComprTest/lib/foo.cpp:4 TS 0_1_256
READ THREADID 0 FUNCNAME _ZN5Point16hamming_distanceEv FUNCNODEID 203957353938 INVNO 2 SYNCS ASYNC VARNAME c VARID 203443302841 VARCLASS NONLOCALSTACK VAROFFSET 0x34 VARFUNCNAME main VARFUNCNODEID 200954073876 VARFUNCTID 0 VARFUNCINVNO 1 INSLOC /data/user-home/srijoni/spandan/MTPSMARTKT/graphSMKT/smartKT/projects/SimplComprTest/lib/foo.cpp:4 TS 0_1_257
READ THREADID 0 FUNCNAME _ZN5Point16hamming_distanceEv FUNCNODEID 203957353938 INVNO 2 SYNCS ASYNC VARNAME c VARID 203443302841 VARCLASS NONLOCALSTACK VAROFFSET 0x38 VARFUNCNAME main VARFUNCNODEID 200954073876 VARFUNCTID 0 VARFUNCINVNO 1 INSLOC /data/user-home/srijoni/spandan/MTPSMARTKT/graphSMKT/smartKT/projects/SimplComprTest/lib/foo.cpp:4 TS 0_1_258
READ THREADID 0 FUNCNAME _ZN5Point16hamming_distanceEv FUNCNODEID 203957353938 INVNO 2 SYNCS ASYNC VARNAME c VARID 203443302841 VARCLASS NONLOCALSTACK VAROFFSET 0x34 VARFUNCNAME main VARFUNCNODEID 200954073876 VARFUNCTID 0 VARFUNCINVNO 1 INSLOC /data/user-home/srijoni/spandan/MTPSMARTKT/graphSMKT/smartKT/projects/SimplComprTest/lib/foo.cpp:4 TS 0_1_259
RETURN THREADID 0 FUNCNAME _ZN5Point16hamming_distanceEv FUNCNODEID 203957353938 INVNO 2 RETVAL UNKNOWN INSLOC /data/user-home/srijoni/spandan/MTPSMARTKT/graphSMKT/smartKT/projects/SimplComprTest/lib/foo.cpp:5 TS 0_1_260
READ THREADID 0 FUNCNAME main FUNCNODEID 200954073876 INVNO 1 SYNCS ASYNC VARNAME count VARID 301246238228 VARCLASS GLOBAL VARADDRESS 0x6020bc INSLOC /data/user-home/srijoni/spandan/MTPSMARTKT/graphSMKT/smartKT/projects/SimplComprTest/src/main.cpp:28 TS 0_1_261
WRITE THREADID 0 FUNCNAME main FUNCNODEID 200954073876 INVNO 1 SYNCS ASYNC VARNAME count VARID 301246238228 VARCLASS GLOBAL VARADDRESS 0x6020bc INSLOC /data/user-home/srijoni/spandan/MTPSMARTKT/graphSMKT/smartKT/projects/SimplComprTest/src/main.cpp:28 TS 0_1_262
READ THREADID 0 FUNCNAME main FUNCNODEID 200954073876 INVNO 1 SYNCS ASYNC VARNAME maxele VARID 201184962880 VARCLASS GLOBAL VARADDRESS 0x602070 INSLOC /data/user-home/srijoni/spandan/MTPSMARTKT/graphSMKT/smartKT/projects/SimplComprTest/src/main.cpp:23 TS 0_1_263
READ THREADID 0 FUNCNAME main FUNCNODEID 200954073876 INVNO 1 SYNCS ASYNC VARNAME i VARID 203817833550 VARCLASS LOCAL VAROFFSET 0x14 INSLOC /data/user-home/srijoni/spandan/MTPSMARTKT/graphSMKT/smartKT/projects/SimplComprTest/src/main.cpp:23 TS 0_1_264
READ THREADID 0 FUNCNAME main FUNCNODEID 200954073876 INVNO 1 SYNCS ASYNC VARNAME i VARID 203817833550 VARCLASS LOCAL VAROFFSET 0x14 INSLOC /data/user-home/srijoni/spandan/MTPSMARTKT/graphSMKT/smartKT/projects/SimplComprTest/src/main.cpp:24 TS 0_1_265
READ THREADID 0 FUNCNAME main FUNCNODEID 200954073876 INVNO 1 SYNCS ASYNC VARNAME p VARID 201191999428 VARCLASS LOCAL VAROFFSET 0x4c INSLOC /data/user-home/srijoni/spandan/MTPSMARTKT/graphSMKT/smartKT/projects/SimplComprTest/src/main.cpp:24 TS 0_1_266
CALL THREADID 0  CALLERNAME main CALLERNODEID 200954073876 CALLEENAME _ZN6Square10makeSquareE5Pointi CALLEENODEID 201259763495 INVNO 1 ARG0 UNKNOWN ARG1 UNKNOWN STATICCALL [	202520103208 s. makeSquare ( p , arrSquare [ i ] )	] INSLOC /data/user-home/srijoni/spandan/MTPSMARTKT/graphSMKT/smartKT/projects/SimplComprTest/src/main.cpp:24 TS 0_1_267
CALL THREADID 0  CALLERNAME _ZN6Square10makeSquareE5Pointi CALLERNODEID 201259763495 CALLEENAME _ZN4Base8setPointE5Point CALLEENODEID 203738238113 INVNO 5 ARG0 UNKNOWN STATICCALL [	102213970836 setPoint( llp )	] INSLOC /data/user-home/srijoni/spandan/MTPSMARTKT/graphSMKT/smartKT/projects/SimplComprTest/lib/foo.cpp:8 TS 0_1_268
WRITE THREADID 0 FUNCNAME _ZN4Base8setPointE5Point FUNCNODEID 203738238113 INVNO 9 SYNCS ASYNC VARNAME s VARID 202175955133 VARCLASS NONLOCALSTACK VAROFFSET 0x44 VARFUNCNAME main VARFUNCNODEID 200954073876 VARFUNCTID 0 VARFUNCINVNO 1 INSLOC /data/user-home/srijoni/spandan/MTPSMARTKT/graphSMKT/smartKT/projects/SimplComprTest/lib/foo.h:28 TS 0_1_269
RETURN THREADID 0 FUNCNAME _ZN4Base8setPointE5Point FUNCNODEID 203738238113 INVNO 9 RETVAL void INSLOC /data/user-home/srijoni/spandan/MTPSMARTKT/graphSMKT/smartKT/projects/SimplComprTest/lib/foo.h:28 TS 0_1_270
WRITE THREADID 0 FUNCNAME _ZN6Square10makeSquareE5Pointi FUNCNODEID 201259763495 INVNO 5 SYNCS ASYNC VARNAME s VARID 202175955133 VARCLASS NONLOCALSTACK VAROFFSET 0x3c VARFUNCNAME main VARFUNCNODEID 200954073876 VARFUNCTID 0 VARFUNCINVNO 1 INSLOC /data/user-home/srijoni/spandan/MTPSMARTKT/graphSMKT/smartKT/projects/SimplComprTest/lib/foo.cpp:9 TS 0_1_271
RETURN THREADID 0 FUNCNAME _ZN6Square10makeSquareE5Pointi FUNCNODEID 201259763495 INVNO 5 RETVAL void INSLOC /data/user-home/srijoni/spandan/MTPSMARTKT/graphSMKT/smartKT/projects/SimplComprTest/lib/foo.cpp:10 TS 0_1_272
READ THREADID 0 FUNCNAME main FUNCNODEID 200954073876 INVNO 1 SYNCS ASYNC VARNAME i VARID 203817833550 VARCLASS LOCAL VAROFFSET 0x14 INSLOC /data/user-home/srijoni/spandan/MTPSMARTKT/graphSMKT/smartKT/projects/SimplComprTest/src/main.cpp:25 TS 0_1_273
READ THREADID 0 FUNCNAME main FUNCNODEID 200954073876 INVNO 1 SYNCS ASYNC VARNAME p VARID 201191999428 VARCLASS LOCAL VAROFFSET 0x4c INSLOC /data/user-home/srijoni/spandan/MTPSMARTKT/graphSMKT/smartKT/projects/SimplComprTest/src/main.cpp:25 TS 0_1_274
CALL THREADID 0  CALLERNAME main CALLERNODEID 200954073876 CALLEENAME _ZN6Circle10makeCircleE5Pointi CALLEENODEID 202942189619 INVNO 1 ARG0 UNKNOWN ARG1 UNKNOWN STATICCALL [	200980079381 c. makeCircle ( p , arrCircle [ i ] )	] INSLOC /data/user-home/srijoni/spandan/MTPSMARTKT/graphSMKT/smartKT/projects/SimplComprTest/src/main.cpp:25 TS 0_1_275
CALL THREADID 0  CALLERNAME _ZN6Circle10makeCircleE5Pointi CALLERNODEID 202942189619 CALLEENAME _ZN4Base8setPointE5Point CALLEENODEID 203738238113 INVNO 5 ARG0 UNKNOWN STATICCALL [	103580314387 setPoint( llp )	] INSLOC /data/user-home/srijoni/spandan/MTPSMARTKT/graphSMKT/smartKT/projects/SimplComprTest/lib/foo.cpp:13 TS 0_1_276
WRITE THREADID 0 FUNCNAME _ZN4Base8setPointE5Point FUNCNODEID 203738238113 INVNO 10 SYNCS ASYNC VARNAME c VARID 203443302841 VARCLASS NONLOCALSTACK VAROFFSET 0x38 VARFUNCNAME main VARFUNCNODEID 200954073876 VARFUNCTID 0 VARFUNCINVNO 1 INSLOC /data/user-home/srijoni/spandan/MTPSMARTKT/graphSMKT/smartKT/projects/SimplComprTest/lib/foo.h:28 TS 0_1_277
RETURN THREADID 0 FUNCNAME _ZN4Base8setPointE5Point FUNCNODEID 203738238113 INVNO 10 RETVAL void INSLOC /data/user-home/srijoni/spandan/MTPSMARTKT/graphSMKT/smartKT/projects/SimplComprTest/lib/foo.h:28 TS 0_1_278
WRITE THREADID 0 FUNCNAME _ZN6Circle10makeCircleE5Pointi FUNCNODEID 202942189619 INVNO 5 SYNCS ASYNC VARNAME c VARID 203443302841 VARCLASS NONLOCALSTACK VAROFFSET 0x30 VARFUNCNAME main VARFUNCNODEID 200954073876 VARFUNCTID 0 VARFUNCINVNO 1 INSLOC /data/user-home/srijoni/spandan/MTPSMARTKT/graphSMKT/smartKT/projects/SimplComprTest/lib/foo.cpp:14 TS 0_1_279
RETURN THREADID 0 FUNCNAME _ZN6Circle10makeCircleE5Pointi FUNCNODEID 202942189619 INVNO 5 RETVAL void INSLOC /data/user-home/srijoni/spandan/MTPSMARTKT/graphSMKT/smartKT/projects/SimplComprTest/lib/foo.cpp:15 TS 0_1_280
READ THREADID 0 FUNCNAME main FUNCNODEID 200954073876 INVNO 1 SYNCS ASYNC VARNAME i VARID 203817833550 VARCLASS LOCAL VAROFFSET 0x14 INSLOC /data/user-home/srijoni/spandan/MTPSMARTKT/graphSMKT/smartKT/projects/SimplComprTest/src/main.cpp:26 TS 0_1_281
WRITE THREADID 0 FUNCNAME main FUNCNODEID 200954073876 INVNO 1 SYNCS ASYNC VARNAME i VARID 203817833550 VARCLASS LOCAL VAROFFSET 0x14 INSLOC /data/user-home/srijoni/spandan/MTPSMARTKT/graphSMKT/smartKT/projects/SimplComprTest/src/main.cpp:26 TS 0_1_282
READ THREADID 0 FUNCNAME main FUNCNODEID 200954073876 INVNO 1 SYNCS ASYNC VARNAME s VARID 202175955133 VARCLASS LOCAL VAROFFSET 0x44 INSLOC /data/user-home/srijoni/spandan/MTPSMARTKT/graphSMKT/smartKT/projects/SimplComprTest/src/main.cpp:27 TS 0_1_283
READ THREADID 0 FUNCNAME main FUNCNODEID 200954073876 INVNO 1 SYNCS ASYNC VARNAME s VARID 202175955133 VARCLASS LOCAL VAROFFSET 0x3c INSLOC /data/user-home/srijoni/spandan/MTPSMARTKT/graphSMKT/smartKT/projects/SimplComprTest/src/main.cpp:27 TS 0_1_284
READ THREADID 0 FUNCNAME main FUNCNODEID 200954073876 INVNO 1 SYNCS ASYNC VARNAME c VARID 203443302841 VARCLASS LOCAL VAROFFSET 0x38 INSLOC /data/user-home/srijoni/spandan/MTPSMARTKT/graphSMKT/smartKT/projects/SimplComprTest/src/main.cpp:27 TS 0_1_285
READ THREADID 0 FUNCNAME main FUNCNODEID 200954073876 INVNO 1 SYNCS ASYNC VARNAME c VARID 203443302841 VARCLASS LOCAL VAROFFSET 0x30 INSLOC /data/user-home/srijoni/spandan/MTPSMARTKT/graphSMKT/smartKT/projects/SimplComprTest/src/main.cpp:27 TS 0_1_286
CALL THREADID 0  CALLERNAME main CALLERNODEID 200954073876 CALLEENAME _Z7compare6Circle6Square CALLEENODEID 202854211754 INVNO 1 ARG0 UNKNOWN ARG1 UNKNOWN STATICCALL [	201645446226 compare( c , s )	] INSLOC /data/user-home/srijoni/spandan/MTPSMARTKT/graphSMKT/smartKT/projects/SimplComprTest/src/main.cpp:27 TS 0_1_287
CALL THREADID 0  CALLERNAME _Z7compare6Circle6Square CALLERNODEID 202854211754 CALLEENAME _Z4area6Circle CALLEENODEID 203223302425 INVNO 5 ARG0 UNKNOWN STATICCALL [	202120372487 area( c )	] INSLOC /data/user-home/srijoni/spandan/MTPSMARTKT/graphSMKT/smartKT/projects/SimplComprTest/src/main.cpp:4 TS 0_1_288
RETURN THREADID 0 FUNCNAME _Z4area6Circle FUNCNODEID 203223302425 INVNO 5 RETVAL 75 INSLOC /data/user-home/srijoni/spandan/MTPSMARTKT/graphSMKT/smartKT/projects/SimplComprTest/src/helper.cpp:5 TS 0_1_289
CALL THREADID 0  CALLERNAME _Z7compare6Circle6Square CALLERNODEID 202854211754 CALLEENAME _Z4area6Square CALLEENODEID 202772255989 INVNO 5 ARG0 UNKNOWN STATICCALL [	204149763127 area( s )	] INSLOC /data/user-home/srijoni/spandan/MTPSMARTKT/graphSMKT/smartKT/projects/SimplComprTest/src/main.cpp:4 TS 0_1_290
RETURN THREADID 0 FUNCNAME _Z4area6Square FUNCNODEID 202772255989 INVNO 5 RETVAL 4 INSLOC /data/user-home/srijoni/spandan/MTPSMARTKT/graphSMKT/smartKT/projects/SimplComprTest/lib/foo.cpp:19 TS 0_1_291
CALL THREADID 0  CALLERNAME _Z7compare6Circle6Square CALLERNODEID 202854211754 CALLEENAME _ZN6SquareD2Ev INVNO 5 ARGS NONE STATICCALL [	] INSLOC /data/user-home/srijoni/spandan/MTPSMARTKT/graphSMKT/smartKT/projects/SimplComprTest/src/main.cpp:4 TS 0_1_292
CALL THREADID 0  CALLERNAME _ZN6SquareD2Ev CALLEENAME _ZN4BaseD2Ev CALLEENODEID 200897991887 INVNO 9 ARGS NONE STATICCALL [	] INSLOC /data/user-home/srijoni/spandan/MTPSMARTKT/graphSMKT/smartKT/projects/SimplComprTest/lib/foo.h:34 TS 0_1_293
READ THREADID 0 FUNCNAME _ZN4BaseD2Ev FUNCNODEID 200897991887 INVNO 17 SYNCS ASYNC VARNAME _ZN4Base5countE VARID 201233933708 VARCLASS CLASSSTATIC VARADDRESS 0x6020b4 VARCONTAINERNAME Base VARCONTAINERNODEID 200974653263 INSLOC /data/user-home/srijoni/spandan/MTPSMARTKT/graphSMKT/smartKT/projects/SimplComprTest/lib/foo.h:25 TS 0_1_294
WRITE THREADID 0 FUNCNAME _ZN4BaseD2Ev FUNCNODEID 200897991887 INVNO 17 SYNCS ASYNC VARNAME _ZN4Base5countE VARID 201233933708 VARCLASS CLASSSTATIC VARADDRESS 0x6020b4 VARCONTAINERNAME Base VARCONTAINERNODEID 200974653263 INSLOC /data/user-home/srijoni/spandan/MTPSMARTKT/graphSMKT/smartKT/projects/SimplComprTest/lib/foo.h:25 TS 0_1_295
RETURN THREADID 0 FUNCNAME _ZN4BaseD2Ev FUNCNODEID 200897991887 INVNO 17 RETVAL UNKNOWN INSLOC /data/user-home/srijoni/spandan/MTPSMARTKT/graphSMKT/smartKT/projects/SimplComprTest/lib/foo.h:26 TS 0_1_296
RETURN THREADID 0 FUNCNAME _ZN6SquareD2Ev INVNO 9 INSLOC /data/user-home/srijoni/spandan/MTPSMARTKT/graphSMKT/smartKT/projects/SimplComprTest/lib/foo.h:34 TS 0_1_297
CALL THREADID 0  CALLERNAME _Z7compare6Circle6Square CALLERNODEID 202854211754 CALLEENAME _ZN6CircleD2Ev INVNO 5 ARGS NONE STATICCALL [	] INSLOC /data/user-home/srijoni/spandan/MTPSMARTKT/graphSMKT/smartKT/projects/SimplComprTest/src/main.cpp:4 TS 0_1_298
CALL THREADID 0  CALLERNAME _ZN6CircleD2Ev CALLEENAME _ZN4BaseD2Ev CALLEENODEID 200897991887 INVNO 9 ARGS NONE STATICCALL [	] INSLOC /data/user-home/srijoni/spandan/MTPSMARTKT/graphSMKT/smartKT/projects/SimplComprTest/lib/foo.h:41 TS 0_1_299
READ THREADID 0 FUNCNAME _ZN4BaseD2Ev FUNCNODEID 200897991887 INVNO 18 SYNCS ASYNC VARNAME _ZN4Base5countE VARID 201233933708 VARCLASS CLASSSTATIC VARADDRESS 0x6020b4 VARCONTAINERNAME Base VARCONTAINERNODEID 200974653263 INSLOC /data/user-home/srijoni/spandan/MTPSMARTKT/graphSMKT/smartKT/projects/SimplComprTest/lib/foo.h:25 TS 0_1_300
WRITE THREADID 0 FUNCNAME _ZN4BaseD2Ev FUNCNODEID 200897991887 INVNO 18 SYNCS ASYNC VARNAME _ZN4Base5countE VARID 201233933708 VARCLASS CLASSSTATIC VARADDRESS 0x6020b4 VARCONTAINERNAME Base VARCONTAINERNODEID 200974653263 INSLOC /data/user-home/srijoni/spandan/MTPSMARTKT/graphSMKT/smartKT/projects/SimplComprTest/lib/foo.h:25 TS 0_1_301
RETURN THREADID 0 FUNCNAME _ZN4BaseD2Ev FUNCNODEID 200897991887 INVNO 18 RETVAL UNKNOWN INSLOC /data/user-home/srijoni/spandan/MTPSMARTKT/graphSMKT/smartKT/projects/SimplComprTest/lib/foo.h:26 TS 0_1_302
RETURN THREADID 0 FUNCNAME _ZN6CircleD2Ev INVNO 9 INSLOC /data/user-home/srijoni/spandan/MTPSMARTKT/graphSMKT/smartKT/projects/SimplComprTest/lib/foo.h:41 TS 0_1_303
RETURN THREADID 0 FUNCNAME _Z7compare6Circle6Square FUNCNODEID 202854211754 INVNO 5 RETVAL 1 INSLOC /data/user-home/srijoni/spandan/MTPSMARTKT/graphSMKT/smartKT/projects/SimplComprTest/src/main.cpp:9 TS 0_1_304
CALL THREADID 0  CALLERNAME main CALLERNODEID 200954073876 CALLEENAME _ZN6CircleD2Ev INVNO 1 ARGS NONE STATICCALL [	] INSLOC /data/user-home/srijoni/spandan/MTPSMARTKT/graphSMKT/smartKT/projects/SimplComprTest/src/main.cpp:27 TS 0_1_305
CALL THREADID 0  CALLERNAME _ZN6CircleD2Ev CALLEENAME _ZN4BaseD2Ev CALLEENODEID 200897991887 INVNO 10 ARGS NONE STATICCALL [	] INSLOC /data/user-home/srijoni/spandan/MTPSMARTKT/graphSMKT/smartKT/projects/SimplComprTest/lib/foo.h:41 TS 0_1_306
READ THREADID 0 FUNCNAME _ZN4BaseD2Ev FUNCNODEID 200897991887 INVNO 19 SYNCS ASYNC VARNAME _ZN4Base5countE VARID 201233933708 VARCLASS CLASSSTATIC VARADDRESS 0x6020b4 VARCONTAINERNAME Base VARCONTAINERNODEID 200974653263 INSLOC /data/user-home/srijoni/spandan/MTPSMARTKT/graphSMKT/smartKT/projects/SimplComprTest/lib/foo.h:25 TS 0_1_307
WRITE THREADID 0 FUNCNAME _ZN4BaseD2Ev FUNCNODEID 200897991887 INVNO 19 SYNCS ASYNC VARNAME _ZN4Base5countE VARID 201233933708 VARCLASS CLASSSTATIC VARADDRESS 0x6020b4 VARCONTAINERNAME Base VARCONTAINERNODEID 200974653263 INSLOC /data/user-home/srijoni/spandan/MTPSMARTKT/graphSMKT/smartKT/projects/SimplComprTest/lib/foo.h:25 TS 0_1_308
RETURN THREADID 0 FUNCNAME _ZN4BaseD2Ev FUNCNODEID 200897991887 INVNO 19 RETVAL UNKNOWN INSLOC /data/user-home/srijoni/spandan/MTPSMARTKT/graphSMKT/smartKT/projects/SimplComprTest/lib/foo.h:26 TS 0_1_309
RETURN THREADID 0 FUNCNAME _ZN6CircleD2Ev INVNO 10 INSLOC /data/user-home/srijoni/spandan/MTPSMARTKT/graphSMKT/smartKT/projects/SimplComprTest/lib/foo.h:41 TS 0_1_310
CALL THREADID 0  CALLERNAME main CALLERNODEID 200954073876 CALLEENAME _ZN6SquareD2Ev INVNO 1 ARGS NONE STATICCALL [	] INSLOC /data/user-home/srijoni/spandan/MTPSMARTKT/graphSMKT/smartKT/projects/SimplComprTest/src/main.cpp:27 TS 0_1_311
CALL THREADID 0  CALLERNAME _ZN6SquareD2Ev CALLEENAME _ZN4BaseD2Ev CALLEENODEID 200897991887 INVNO 10 ARGS NONE STATICCALL [	] INSLOC /data/user-home/srijoni/spandan/MTPSMARTKT/graphSMKT/smartKT/projects/SimplComprTest/lib/foo.h:34 TS 0_1_312
READ THREADID 0 FUNCNAME _ZN4BaseD2Ev FUNCNODEID 200897991887 INVNO 20 SYNCS ASYNC VARNAME _ZN4Base5countE VARID 201233933708 VARCLASS CLASSSTATIC VARADDRESS 0x6020b4 VARCONTAINERNAME Base VARCONTAINERNODEID 200974653263 INSLOC /data/user-home/srijoni/spandan/MTPSMARTKT/graphSMKT/smartKT/projects/SimplComprTest/lib/foo.h:25 TS 0_1_313
WRITE THREADID 0 FUNCNAME _ZN4BaseD2Ev FUNCNODEID 200897991887 INVNO 20 SYNCS ASYNC VARNAME _ZN4Base5countE VARID 201233933708 VARCLASS CLASSSTATIC VARADDRESS 0x6020b4 VARCONTAINERNAME Base VARCONTAINERNODEID 200974653263 INSLOC /data/user-home/srijoni/spandan/MTPSMARTKT/graphSMKT/smartKT/projects/SimplComprTest/lib/foo.h:25 TS 0_1_314
RETURN THREADID 0 FUNCNAME _ZN4BaseD2Ev FUNCNODEID 200897991887 INVNO 20 RETVAL UNKNOWN INSLOC /data/user-home/srijoni/spandan/MTPSMARTKT/graphSMKT/smartKT/projects/SimplComprTest/lib/foo.h:26 TS 0_1_315
RETURN THREADID 0 FUNCNAME _ZN6SquareD2Ev INVNO 10 INSLOC /data/user-home/srijoni/spandan/MTPSMARTKT/graphSMKT/smartKT/projects/SimplComprTest/lib/foo.h:34 TS 0_1_316
CALL THREADID 0  CALLERNAME main CALLERNODEID 200954073876 CALLEENAME _ZN5Point16hamming_distanceEv CALLEENODEID 203957353938 INVNO 1 ARGS NONE STATICCALL [	203800700125 c. p . hamming_distance ( )	] INSLOC /data/user-home/srijoni/spandan/MTPSMARTKT/graphSMKT/smartKT/projects/SimplComprTest/src/main.cpp:28 TS 0_1_317
READ THREADID 0 FUNCNAME _ZN5Point16hamming_distanceEv FUNCNODEID 203957353938 INVNO 3 SYNCS ASYNC VARNAME c VARID 203443302841 VARCLASS NONLOCALSTACK VAROFFSET 0x38 VARFUNCNAME main VARFUNCNODEID 200954073876 VARFUNCTID 0 VARFUNCINVNO 1 INSLOC /data/user-home/srijoni/spandan/MTPSMARTKT/graphSMKT/smartKT/projects/SimplComprTest/lib/foo.cpp:4 TS 0_1_318
READ THREADID 0 FUNCNAME _ZN5Point16hamming_distanceEv FUNCNODEID 203957353938 INVNO 3 SYNCS ASYNC VARNAME c VARID 203443302841 VARCLASS NONLOCALSTACK VAROFFSET 0x34 VARFUNCNAME main VARFUNCNODEID 200954073876 VARFUNCTID 0 VARFUNCINVNO 1 INSLOC /data/user-home/srijoni/spandan/MTPSMARTKT/graphSMKT/smartKT/projects/SimplComprTest/lib/foo.cpp:4 TS 0_1_319
READ THREADID 0 FUNCNAME _ZN5Point16hamming_distanceEv FUNCNODEID 203957353938 INVNO 3 SYNCS ASYNC VARNAME c VARID 203443302841 VARCLASS NONLOCALSTACK VAROFFSET 0x38 VARFUNCNAME main VARFUNCNODEID 200954073876 VARFUNCTID 0 VARFUNCINVNO 1 INSLOC /data/user-home/srijoni/spandan/MTPSMARTKT/graphSMKT/smartKT/projects/SimplComprTest/lib/foo.cpp:4 TS 0_1_320
READ THREADID 0 FUNCNAME _ZN5Point16hamming_distanceEv FUNCNODEID 203957353938 INVNO 3 SYNCS ASYNC VARNAME c VARID 203443302841 VARCLASS NONLOCALSTACK VAROFFSET 0x34 VARFUNCNAME main VARFUNCNODEID 200954073876 VARFUNCTID 0 VARFUNCINVNO 1 INSLOC /data/user-home/srijoni/spandan/MTPSMARTKT/graphSMKT/smartKT/projects/SimplComprTest/lib/foo.cpp:4 TS 0_1_321
RETURN THREADID 0 FUNCNAME _ZN5Point16hamming_distanceEv FUNCNODEID 203957353938 INVNO 3 RETVAL UNKNOWN INSLOC /data/user-home/srijoni/spandan/MTPSMARTKT/graphSMKT/smartKT/projects/SimplComprTest/lib/foo.cpp:5 TS 0_1_322
READ THREADID 0 FUNCNAME main FUNCNODEID 200954073876 INVNO 1 SYNCS ASYNC VARNAME count VARID 301246238228 VARCLASS GLOBAL VARADDRESS 0x6020bc INSLOC /data/user-home/srijoni/spandan/MTPSMARTKT/graphSMKT/smartKT/projects/SimplComprTest/src/main.cpp:28 TS 0_1_323
WRITE THREADID 0 FUNCNAME main FUNCNODEID 200954073876 INVNO 1 SYNCS ASYNC VARNAME count VARID 301246238228 VARCLASS GLOBAL VARADDRESS 0x6020bc INSLOC /data/user-home/srijoni/spandan/MTPSMARTKT/graphSMKT/smartKT/projects/SimplComprTest/src/main.cpp:28 TS 0_1_324
READ THREADID 0 FUNCNAME main FUNCNODEID 200954073876 INVNO 1 SYNCS ASYNC VARNAME maxele VARID 201184962880 VARCLASS GLOBAL VARADDRESS 0x602070 INSLOC /data/user-home/srijoni/spandan/MTPSMARTKT/graphSMKT/smartKT/projects/SimplComprTest/src/main.cpp:23 TS 0_1_325
READ THREADID 0 FUNCNAME main FUNCNODEID 200954073876 INVNO 1 SYNCS ASYNC VARNAME i VARID 203817833550 VARCLASS LOCAL VAROFFSET 0x14 INSLOC /data/user-home/srijoni/spandan/MTPSMARTKT/graphSMKT/smartKT/projects/SimplComprTest/src/main.cpp:23 TS 0_1_326
READ THREADID 0 FUNCNAME main FUNCNODEID 200954073876 INVNO 1 SYNCS ASYNC VARNAME count VARID 301246238228 VARCLASS GLOBAL VARADDRESS 0x6020bc INSLOC /data/user-home/srijoni/spandan/MTPSMARTKT/graphSMKT/smartKT/projects/SimplComprTest/src/main.cpp:33 TS 0_1_327
CALL THREADID 0  CALLERNAME main CALLERNODEID 200954073876 CALLEENAME _ZN6SquareD2Ev INVNO 1 ARGS NONE STATICCALL [	] INSLOC /data/user-home/srijoni/spandan/MTPSMARTKT/graphSMKT/smartKT/projects/SimplComprTest/src/main.cpp:19 TS 0_1_328
CALL THREADID 0  CALLERNAME _ZN6SquareD2Ev CALLEENAME _ZN4BaseD2Ev CALLEENODEID 200897991887 INVNO 11 ARGS NONE STATICCALL [	] INSLOC /data/user-home/srijoni/spandan/MTPSMARTKT/graphSMKT/smartKT/projects/SimplComprTest/lib/foo.h:34 TS 0_1_329
READ THREADID 0 FUNCNAME _ZN4BaseD2Ev FUNCNODEID 200897991887 INVNO 21 SYNCS ASYNC VARNAME _ZN4Base5countE VARID 201233933708 VARCLASS CLASSSTATIC VARADDRESS 0x6020b4 VARCONTAINERNAME Base VARCONTAINERNODEID 200974653263 INSLOC /data/user-home/srijoni/spandan/MTPSMARTKT/graphSMKT/smartKT/projects/SimplComprTest/lib/foo.h:25 TS 0_1_330
WRITE THREADID 0 FUNCNAME _ZN4BaseD2Ev FUNCNODEID 200897991887 INVNO 21 SYNCS ASYNC VARNAME _ZN4Base5countE VARID 201233933708 VARCLASS CLASSSTATIC VARADDRESS 0x6020b4 VARCONTAINERNAME Base VARCONTAINERNODEID 200974653263 INSLOC /data/user-home/srijoni/spandan/MTPSMARTKT/graphSMKT/smartKT/projects/SimplComprTest/lib/foo.h:25 TS 0_1_331
RETURN THREADID 0 FUNCNAME _ZN4BaseD2Ev FUNCNODEID 200897991887 INVNO 21 RETVAL UNKNOWN INSLOC /data/user-home/srijoni/spandan/MTPSMARTKT/graphSMKT/smartKT/projects/SimplComprTest/lib/foo.h:26 TS 0_1_332
RETURN THREADID 0 FUNCNAME _ZN6SquareD2Ev INVNO 11 INSLOC /data/user-home/srijoni/spandan/MTPSMARTKT/graphSMKT/smartKT/projects/SimplComprTest/lib/foo.h:34 TS 0_1_333
CALL THREADID 0  CALLERNAME main CALLERNODEID 200954073876 CALLEENAME _ZN6CircleD2Ev INVNO 1 ARGS NONE STATICCALL [	] INSLOC /data/user-home/srijoni/spandan/MTPSMARTKT/graphSMKT/smartKT/projects/SimplComprTest/src/main.cpp:18 TS 0_1_334
CALL THREADID 0  CALLERNAME _ZN6CircleD2Ev CALLEENAME _ZN4BaseD2Ev CALLEENODEID 200897991887 INVNO 11 ARGS NONE STATICCALL [	] INSLOC /data/user-home/srijoni/spandan/MTPSMARTKT/graphSMKT/smartKT/projects/SimplComprTest/lib/foo.h:41 TS 0_1_335
READ THREADID 0 FUNCNAME _ZN4BaseD2Ev FUNCNODEID 200897991887 INVNO 22 SYNCS ASYNC VARNAME _ZN4Base5countE VARID 201233933708 VARCLASS CLASSSTATIC VARADDRESS 0x6020b4 VARCONTAINERNAME Base VARCONTAINERNODEID 200974653263 INSLOC /data/user-home/srijoni/spandan/MTPSMARTKT/graphSMKT/smartKT/projects/SimplComprTest/lib/foo.h:25 TS 0_1_336
WRITE THREADID 0 FUNCNAME _ZN4BaseD2Ev FUNCNODEID 200897991887 INVNO 22 SYNCS ASYNC VARNAME _ZN4Base5countE VARID 201233933708 VARCLASS CLASSSTATIC VARADDRESS 0x6020b4 VARCONTAINERNAME Base VARCONTAINERNODEID 200974653263 INSLOC /data/user-home/srijoni/spandan/MTPSMARTKT/graphSMKT/smartKT/projects/SimplComprTest/lib/foo.h:25 TS 0_1_337
RETURN THREADID 0 FUNCNAME _ZN4BaseD2Ev FUNCNODEID 200897991887 INVNO 22 RETVAL UNKNOWN INSLOC /data/user-home/srijoni/spandan/MTPSMARTKT/graphSMKT/smartKT/projects/SimplComprTest/lib/foo.h:26 TS 0_1_338
RETURN THREADID 0 FUNCNAME _ZN6CircleD2Ev INVNO 11 INSLOC /data/user-home/srijoni/spandan/MTPSMARTKT/graphSMKT/smartKT/projects/SimplComprTest/lib/foo.h:41 TS 0_1_339
RETURN THREADID 0 FUNCNAME main FUNCNODEID 200954073876 INVNO 1 RETVAL UNKNOWN INSLOC /data/user-home/srijoni/spandan/MTPSMARTKT/graphSMKT/smartKT/projects/SimplComprTest/src/main.cpp:34 TS 0_1_340
