CALL THREADID 0 CALLERNAME _GLOBAL__sub_I_a CALLEENAME _Z41__static_initialization_and_destruction_0ii id 1 ARGS NONE STATICCALL [	] INVNO 1
CALL THREADID 0 CALLERNAME _Z41__static_initialization_and_destruction_0ii CALLEENAME _ZN1AC1Ev id 2 ARGS NONE STATICCALL [	c:@S@A@F@A# a	] INVNO 1
WRITE THREADID 0 VARCLASS GLOBAL ADDRESS 0x60607c VARNAME a VARID c:@a FUNCNAME _ZN1AC1Ev SYNCS ASYNC id 3 INVNO 1
RETURN THREADID 0 FUNCNAME _ZN1AC1Ev id 4 RETVAL void INVNO 1
RETURN THREADID 0 FUNCNAME _Z41__static_initialization_and_destruction_0ii id 5 INVNO 1
RETURN THREADID 0 FUNCNAME _GLOBAL__sub_I_a id 6 INVNO 1
CALL THREADID 0 CALLERNAME main CALLEENAME _ZNSt6threadC2IRFviEJiEvEEOT_DpOT0_ id 7 ARGS NONE STATICCALL [	] INVNO 1
CALL THREADID 0 CALLERNAME main CALLEENAME _ZNSt6threadC2IRFviEJiEvEEOT_DpOT0_ id 8 ARGS NONE STATICCALL [	] INVNO 1
CALL THREADID 0 CALLERNAME main CALLEENAME _ZNSt6threadC2IRFviEJiEvEEOT_DpOT0_ id 9 ARGS NONE STATICCALL [	] INVNO 1
WRITE THREADID 1 VARCLASS LOCAL OFFSET 0x14 VARNAME x VARID c:mythread.h@138@F@task1#I#@x FUNCNAME _Z5task1i SYNCS ASYNC id 10 INVNO 1
WRITE THREADID 1 VARCLASS LOCAL OFFSET 0x4 VARNAME i VARID c:mythread.h@152@F@task1#I#@i FUNCNAME _Z5task1i SYNCS ASYNC id 11 INVNO 1
READ THREADID 1 VARCLASS LOCAL OFFSET 0x4 VARNAME i VARID c:mythread.h@152@F@task1#I#@i FUNCNAME _Z5task1i SYNCS ASYNC id 12 INVNO 1
READ THREADID 1 VARCLASS LOCAL OFFSET 0x14 VARNAME x VARID c:mythread.h@138@F@task1#I#@x FUNCNAME _Z5task1i SYNCS ASYNC id 13 INVNO 1
READ THREADID 1 VARCLASS GLOBAL ADDRESS 0x60607c VARNAME a VARID c:@a FUNCNAME _Z5task1i SYNCS ASYNC id 14 INVNO 1
WRITE THREADID 1 VARCLASS GLOBAL ADDRESS 0x60607c VARNAME a VARID c:@a FUNCNAME _Z5task1i SYNCS ASYNC id 15 INVNO 1
READ THREADID 1 VARCLASS LOCAL OFFSET 0x4 VARNAME i VARID c:mythread.h@152@F@task1#I#@i FUNCNAME _Z5task1i SYNCS ASYNC id 16 INVNO 1
READ THREADID 1 VARCLASS LOCAL OFFSET 0x4 VARNAME i VARID c:mythread.h@152@F@task1#I#@i FUNCNAME _Z5task1i SYNCS ASYNC id 17 INVNO 1
READ THREADID 1 VARCLASS LOCAL OFFSET 0x14 VARNAME x VARID c:mythread.h@138@F@task1#I#@x FUNCNAME _Z5task1i SYNCS ASYNC id 18 INVNO 1
READ THREADID 1 VARCLASS GLOBAL ADDRESS 0x60607c VARNAME a VARID c:@a FUNCNAME _Z5task1i SYNCS ASYNC id 19 INVNO 1
WRITE THREADID 1 VARCLASS GLOBAL ADDRESS 0x60607c VARNAME a VARID c:@a FUNCNAME _Z5task1i SYNCS ASYNC id 20 INVNO 1
READ THREADID 1 VARCLASS LOCAL OFFSET 0x4 VARNAME i VARID c:mythread.h@152@F@task1#I#@i FUNCNAME _Z5task1i SYNCS ASYNC id 21 INVNO 1
READ THREADID 1 VARCLASS LOCAL OFFSET 0x4 VARNAME i VARID c:mythread.h@152@F@task1#I#@i FUNCNAME _Z5task1i SYNCS ASYNC id 22 INVNO 1
READ THREADID 1 VARCLASS LOCAL OFFSET 0x14 VARNAME x VARID c:mythread.h@138@F@task1#I#@x FUNCNAME _Z5task1i SYNCS ASYNC id 23 INVNO 1
READ THREADID 1 VARCLASS GLOBAL ADDRESS 0x60607c VARNAME a VARID c:@a FUNCNAME _Z5task1i SYNCS ASYNC id 24 INVNO 1
WRITE THREADID 1 VARCLASS GLOBAL ADDRESS 0x60607c VARNAME a VARID c:@a FUNCNAME _Z5task1i SYNCS ASYNC id 25 INVNO 1
READ THREADID 1 VARCLASS LOCAL OFFSET 0x4 VARNAME i VARID c:mythread.h@152@F@task1#I#@i FUNCNAME _Z5task1i SYNCS ASYNC id 26 INVNO 1
READ THREADID 1 VARCLASS LOCAL OFFSET 0x4 VARNAME i VARID c:mythread.h@152@F@task1#I#@i FUNCNAME _Z5task1i SYNCS ASYNC id 27 INVNO 1
READ THREADID 1 VARCLASS LOCAL OFFSET 0x14 VARNAME x VARID c:mythread.h@138@F@task1#I#@x FUNCNAME _Z5task1i SYNCS ASYNC id 28 INVNO 1
READ THREADID 1 VARCLASS GLOBAL ADDRESS 0x60607c VARNAME a VARID c:@a FUNCNAME _Z5task1i SYNCS ASYNC id 29 INVNO 1
WRITE THREADID 1 VARCLASS GLOBAL ADDRESS 0x60607c VARNAME a VARID c:@a FUNCNAME _Z5task1i SYNCS ASYNC id 30 INVNO 1
READ THREADID 1 VARCLASS LOCAL OFFSET 0x4 VARNAME i VARID c:mythread.h@152@F@task1#I#@i FUNCNAME _Z5task1i SYNCS ASYNC id 31 INVNO 1
READ THREADID 1 VARCLASS LOCAL OFFSET 0x4 VARNAME i VARID c:mythread.h@152@F@task1#I#@i FUNCNAME _Z5task1i SYNCS ASYNC id 32 INVNO 1
READ THREADID 1 VARCLASS LOCAL OFFSET 0x14 VARNAME x VARID c:mythread.h@138@F@task1#I#@x FUNCNAME _Z5task1i SYNCS ASYNC id 33 INVNO 1
READ THREADID 1 VARCLASS GLOBAL ADDRESS 0x60607c VARNAME a VARID c:@a FUNCNAME _Z5task1i SYNCS ASYNC id 34 INVNO 1
WRITE THREADID 1 VARCLASS GLOBAL ADDRESS 0x60607c VARNAME a VARID c:@a FUNCNAME _Z5task1i SYNCS ASYNC id 35 INVNO 1
READ THREADID 1 VARCLASS LOCAL OFFSET 0x4 VARNAME i VARID c:mythread.h@152@F@task1#I#@i FUNCNAME _Z5task1i SYNCS ASYNC id 36 INVNO 1
READ THREADID 1 VARCLASS LOCAL OFFSET 0x4 VARNAME i VARID c:mythread.h@152@F@task1#I#@i FUNCNAME _Z5task1i SYNCS ASYNC id 37 INVNO 1
READ THREADID 1 VARCLASS LOCAL OFFSET 0x14 VARNAME x VARID c:mythread.h@138@F@task1#I#@x FUNCNAME _Z5task1i SYNCS ASYNC id 38 INVNO 1
READ THREADID 1 VARCLASS GLOBAL ADDRESS 0x60607c VARNAME a VARID c:@a FUNCNAME _Z5task1i SYNCS ASYNC id 39 INVNO 1
WRITE THREADID 1 VARCLASS GLOBAL ADDRESS 0x60607c VARNAME a VARID c:@a FUNCNAME _Z5task1i SYNCS ASYNC id 40 INVNO 1
READ THREADID 1 VARCLASS LOCAL OFFSET 0x4 VARNAME i VARID c:mythread.h@152@F@task1#I#@i FUNCNAME _Z5task1i SYNCS ASYNC id 41 INVNO 1
READ THREADID 1 VARCLASS LOCAL OFFSET 0x4 VARNAME i VARID c:mythread.h@152@F@task1#I#@i FUNCNAME _Z5task1i SYNCS ASYNC id 42 INVNO 1
READ THREADID 1 VARCLASS LOCAL OFFSET 0x14 VARNAME x VARID c:mythread.h@138@F@task1#I#@x FUNCNAME _Z5task1i SYNCS ASYNC id 43 INVNO 1
READ THREADID 1 VARCLASS GLOBAL ADDRESS 0x60607c VARNAME a VARID c:@a FUNCNAME _Z5task1i SYNCS ASYNC id 44 INVNO 1
WRITE THREADID 1 VARCLASS GLOBAL ADDRESS 0x60607c VARNAME a VARID c:@a FUNCNAME _Z5task1i SYNCS ASYNC id 45 INVNO 1
READ THREADID 1 VARCLASS LOCAL OFFSET 0x4 VARNAME i VARID c:mythread.h@152@F@task1#I#@i FUNCNAME _Z5task1i SYNCS ASYNC id 46 INVNO 1
READ THREADID 1 VARCLASS LOCAL OFFSET 0x4 VARNAME i VARID c:mythread.h@152@F@task1#I#@i FUNCNAME _Z5task1i SYNCS ASYNC id 47 INVNO 1
READ THREADID 1 VARCLASS LOCAL OFFSET 0x14 VARNAME x VARID c:mythread.h@138@F@task1#I#@x FUNCNAME _Z5task1i SYNCS ASYNC id 48 INVNO 1
READ THREADID 1 VARCLASS GLOBAL ADDRESS 0x60607c VARNAME a VARID c:@a FUNCNAME _Z5task1i SYNCS ASYNC id 49 INVNO 1
WRITE THREADID 1 VARCLASS GLOBAL ADDRESS 0x60607c VARNAME a VARID c:@a FUNCNAME _Z5task1i SYNCS ASYNC id 50 INVNO 1
READ THREADID 1 VARCLASS LOCAL OFFSET 0x4 VARNAME i VARID c:mythread.h@152@F@task1#I#@i FUNCNAME _Z5task1i SYNCS ASYNC id 51 INVNO 1
READ THREADID 1 VARCLASS LOCAL OFFSET 0x4 VARNAME i VARID c:mythread.h@152@F@task1#I#@i FUNCNAME _Z5task1i SYNCS ASYNC id 52 INVNO 1
READ THREADID 1 VARCLASS LOCAL OFFSET 0x14 VARNAME x VARID c:mythread.h@138@F@task1#I#@x FUNCNAME _Z5task1i SYNCS ASYNC id 53 INVNO 1
READ THREADID 1 VARCLASS GLOBAL ADDRESS 0x60607c VARNAME a VARID c:@a FUNCNAME _Z5task1i SYNCS ASYNC id 54 INVNO 1
WRITE THREADID 1 VARCLASS GLOBAL ADDRESS 0x60607c VARNAME a VARID c:@a FUNCNAME _Z5task1i SYNCS ASYNC id 55 INVNO 1
READ THREADID 1 VARCLASS LOCAL OFFSET 0x4 VARNAME i VARID c:mythread.h@152@F@task1#I#@i FUNCNAME _Z5task1i SYNCS ASYNC id 56 INVNO 1
READ THREADID 1 VARCLASS LOCAL OFFSET 0x4 VARNAME i VARID c:mythread.h@152@F@task1#I#@i FUNCNAME _Z5task1i SYNCS ASYNC id 57 INVNO 1
READ THREADID 1 VARCLASS LOCAL OFFSET 0x14 VARNAME x VARID c:mythread.h@138@F@task1#I#@x FUNCNAME _Z5task1i SYNCS ASYNC id 58 INVNO 1
READ THREADID 1 VARCLASS GLOBAL ADDRESS 0x60607c VARNAME a VARID c:@a FUNCNAME _Z5task1i SYNCS ASYNC id 59 INVNO 1
WRITE THREADID 1 VARCLASS GLOBAL ADDRESS 0x60607c VARNAME a VARID c:@a FUNCNAME _Z5task1i SYNCS ASYNC id 60 INVNO 1
READ THREADID 1 VARCLASS LOCAL OFFSET 0x4 VARNAME i VARID c:mythread.h@152@F@task1#I#@i FUNCNAME _Z5task1i SYNCS ASYNC id 61 INVNO 1
READ THREADID 1 VARCLASS LOCAL OFFSET 0x4 VARNAME i VARID c:mythread.h@152@F@task1#I#@i FUNCNAME _Z5task1i SYNCS ASYNC id 62 INVNO 1
READ THREADID 1 VARCLASS LOCAL OFFSET 0x14 VARNAME x VARID c:mythread.h@138@F@task1#I#@x FUNCNAME _Z5task1i SYNCS ASYNC id 63 INVNO 1
READ THREADID 1 VARCLASS GLOBAL ADDRESS 0x60607c VARNAME a VARID c:@a FUNCNAME _Z5task1i SYNCS ASYNC id 64 INVNO 1
WRITE THREADID 1 VARCLASS GLOBAL ADDRESS 0x60607c VARNAME a VARID c:@a FUNCNAME _Z5task1i SYNCS ASYNC id 65 INVNO 1
READ THREADID 1 VARCLASS LOCAL OFFSET 0x4 VARNAME i VARID c:mythread.h@152@F@task1#I#@i FUNCNAME _Z5task1i SYNCS ASYNC id 66 INVNO 1
READ THREADID 1 VARCLASS LOCAL OFFSET 0x4 VARNAME i VARID c:mythread.h@152@F@task1#I#@i FUNCNAME _Z5task1i SYNCS ASYNC id 67 INVNO 1
READ THREADID 1 VARCLASS LOCAL OFFSET 0x14 VARNAME x VARID c:mythread.h@138@F@task1#I#@x FUNCNAME _Z5task1i SYNCS ASYNC id 68 INVNO 1
READ THREADID 1 VARCLASS GLOBAL ADDRESS 0x60607c VARNAME a VARID c:@a FUNCNAME _Z5task1i SYNCS ASYNC id 69 INVNO 1
WRITE THREADID 1 VARCLASS GLOBAL ADDRESS 0x60607c VARNAME a VARID c:@a FUNCNAME _Z5task1i SYNCS ASYNC id 70 INVNO 1
READ THREADID 1 VARCLASS LOCAL OFFSET 0x4 VARNAME i VARID c:mythread.h@152@F@task1#I#@i FUNCNAME _Z5task1i SYNCS ASYNC id 71 INVNO 1
READ THREADID 1 VARCLASS LOCAL OFFSET 0x4 VARNAME i VARID c:mythread.h@152@F@task1#I#@i FUNCNAME _Z5task1i SYNCS ASYNC id 72 INVNO 1
READ THREADID 1 VARCLASS LOCAL OFFSET 0x14 VARNAME x VARID c:mythread.h@138@F@task1#I#@x FUNCNAME _Z5task1i SYNCS ASYNC id 73 INVNO 1
READ THREADID 1 VARCLASS GLOBAL ADDRESS 0x60607c VARNAME a VARID c:@a FUNCNAME _Z5task1i SYNCS ASYNC id 74 INVNO 1
WRITE THREADID 1 VARCLASS GLOBAL ADDRESS 0x60607c VARNAME a VARID c:@a FUNCNAME _Z5task1i SYNCS ASYNC id 75 INVNO 1
READ THREADID 1 VARCLASS LOCAL OFFSET 0x4 VARNAME i VARID c:mythread.h@152@F@task1#I#@i FUNCNAME _Z5task1i SYNCS ASYNC id 76 INVNO 1
READ THREADID 1 VARCLASS LOCAL OFFSET 0x4 VARNAME i VARID c:mythread.h@152@F@task1#I#@i FUNCNAME _Z5task1i SYNCS ASYNC id 77 INVNO 1
READ THREADID 1 VARCLASS LOCAL OFFSET 0x14 VARNAME x VARID c:mythread.h@138@F@task1#I#@x FUNCNAME _Z5task1i SYNCS ASYNC id 78 INVNO 1
READ THREADID 1 VARCLASS GLOBAL ADDRESS 0x60607c VARNAME a VARID c:@a FUNCNAME _Z5task1i SYNCS ASYNC id 79 INVNO 1
WRITE THREADID 1 VARCLASS GLOBAL ADDRESS 0x60607c VARNAME a VARID c:@a FUNCNAME _Z5task1i SYNCS ASYNC id 80 INVNO 1
READ THREADID 1 VARCLASS LOCAL OFFSET 0x4 VARNAME i VARID c:mythread.h@152@F@task1#I#@i FUNCNAME _Z5task1i SYNCS ASYNC id 81 INVNO 1
READ THREADID 1 VARCLASS LOCAL OFFSET 0x4 VARNAME i VARID c:mythread.h@152@F@task1#I#@i FUNCNAME _Z5task1i SYNCS ASYNC id 82 INVNO 1
READ THREADID 1 VARCLASS LOCAL OFFSET 0x14 VARNAME x VARID c:mythread.h@138@F@task1#I#@x FUNCNAME _Z5task1i SYNCS ASYNC id 83 INVNO 1
READ THREADID 1 VARCLASS GLOBAL ADDRESS 0x60607c VARNAME a VARID c:@a FUNCNAME _Z5task1i SYNCS ASYNC id 84 INVNO 1
WRITE THREADID 1 VARCLASS GLOBAL ADDRESS 0x60607c VARNAME a VARID c:@a FUNCNAME _Z5task1i SYNCS ASYNC id 85 INVNO 1
READ THREADID 1 VARCLASS LOCAL OFFSET 0x4 VARNAME i VARID c:mythread.h@152@F@task1#I#@i FUNCNAME _Z5task1i SYNCS ASYNC id 86 INVNO 1
READ THREADID 1 VARCLASS LOCAL OFFSET 0x4 VARNAME i VARID c:mythread.h@152@F@task1#I#@i FUNCNAME _Z5task1i SYNCS ASYNC id 87 INVNO 1
READ THREADID 1 VARCLASS LOCAL OFFSET 0x14 VARNAME x VARID c:mythread.h@138@F@task1#I#@x FUNCNAME _Z5task1i SYNCS ASYNC id 88 INVNO 1
READ THREADID 1 VARCLASS GLOBAL ADDRESS 0x60607c VARNAME a VARID c:@a FUNCNAME _Z5task1i SYNCS ASYNC id 89 INVNO 1
WRITE THREADID 1 VARCLASS GLOBAL ADDRESS 0x60607c VARNAME a VARID c:@a FUNCNAME _Z5task1i SYNCS ASYNC id 90 INVNO 1
READ THREADID 1 VARCLASS LOCAL OFFSET 0x4 VARNAME i VARID c:mythread.h@152@F@task1#I#@i FUNCNAME _Z5task1i SYNCS ASYNC id 91 INVNO 1
READ THREADID 1 VARCLASS LOCAL OFFSET 0x4 VARNAME i VARID c:mythread.h@152@F@task1#I#@i FUNCNAME _Z5task1i SYNCS ASYNC id 92 INVNO 1
READ THREADID 1 VARCLASS LOCAL OFFSET 0x14 VARNAME x VARID c:mythread.h@138@F@task1#I#@x FUNCNAME _Z5task1i SYNCS ASYNC id 93 INVNO 1
READ THREADID 1 VARCLASS GLOBAL ADDRESS 0x60607c VARNAME a VARID c:@a FUNCNAME _Z5task1i SYNCS ASYNC id 94 INVNO 1
WRITE THREADID 1 VARCLASS GLOBAL ADDRESS 0x60607c VARNAME a VARID c:@a FUNCNAME _Z5task1i SYNCS ASYNC id 95 INVNO 1
READ THREADID 1 VARCLASS LOCAL OFFSET 0x4 VARNAME i VARID c:mythread.h@152@F@task1#I#@i FUNCNAME _Z5task1i SYNCS ASYNC id 96 INVNO 1
READ THREADID 1 VARCLASS LOCAL OFFSET 0x4 VARNAME i VARID c:mythread.h@152@F@task1#I#@i FUNCNAME _Z5task1i SYNCS ASYNC id 97 INVNO 1
READ THREADID 1 VARCLASS LOCAL OFFSET 0x14 VARNAME x VARID c:mythread.h@138@F@task1#I#@x FUNCNAME _Z5task1i SYNCS ASYNC id 98 INVNO 1
READ THREADID 1 VARCLASS GLOBAL ADDRESS 0x60607c VARNAME a VARID c:@a FUNCNAME _Z5task1i SYNCS ASYNC id 99 INVNO 1
WRITE THREADID 1 VARCLASS GLOBAL ADDRESS 0x60607c VARNAME a VARID c:@a FUNCNAME _Z5task1i SYNCS ASYNC id 100 INVNO 1
READ THREADID 1 VARCLASS LOCAL OFFSET 0x4 VARNAME i VARID c:mythread.h@152@F@task1#I#@i FUNCNAME _Z5task1i SYNCS ASYNC id 101 INVNO 1
READ THREADID 1 VARCLASS LOCAL OFFSET 0x4 VARNAME i VARID c:mythread.h@152@F@task1#I#@i FUNCNAME _Z5task1i SYNCS ASYNC id 102 INVNO 1
READ THREADID 1 VARCLASS LOCAL OFFSET 0x14 VARNAME x VARID c:mythread.h@138@F@task1#I#@x FUNCNAME _Z5task1i SYNCS ASYNC id 103 INVNO 1
READ THREADID 1 VARCLASS GLOBAL ADDRESS 0x60607c VARNAME a VARID c:@a FUNCNAME _Z5task1i SYNCS ASYNC id 104 INVNO 1
WRITE THREADID 1 VARCLASS GLOBAL ADDRESS 0x60607c VARNAME a VARID c:@a FUNCNAME _Z5task1i SYNCS ASYNC id 105 INVNO 1
READ THREADID 1 VARCLASS LOCAL OFFSET 0x4 VARNAME i VARID c:mythread.h@152@F@task1#I#@i FUNCNAME _Z5task1i SYNCS ASYNC id 106 INVNO 1
READ THREADID 1 VARCLASS LOCAL OFFSET 0x4 VARNAME i VARID c:mythread.h@152@F@task1#I#@i FUNCNAME _Z5task1i SYNCS ASYNC id 107 INVNO 1
READ THREADID 1 VARCLASS LOCAL OFFSET 0x14 VARNAME x VARID c:mythread.h@138@F@task1#I#@x FUNCNAME _Z5task1i SYNCS ASYNC id 108 INVNO 1
READ THREADID 1 VARCLASS GLOBAL ADDRESS 0x60607c VARNAME a VARID c:@a FUNCNAME _Z5task1i SYNCS ASYNC id 109 INVNO 1
WRITE THREADID 1 VARCLASS GLOBAL ADDRESS 0x60607c VARNAME a VARID c:@a FUNCNAME _Z5task1i SYNCS ASYNC id 110 INVNO 1
READ THREADID 1 VARCLASS LOCAL OFFSET 0x4 VARNAME i VARID c:mythread.h@152@F@task1#I#@i FUNCNAME _Z5task1i SYNCS ASYNC id 111 INVNO 1
READ THREADID 1 VARCLASS LOCAL OFFSET 0x4 VARNAME i VARID c:mythread.h@152@F@task1#I#@i FUNCNAME _Z5task1i SYNCS ASYNC id 112 INVNO 1
READ THREADID 1 VARCLASS LOCAL OFFSET 0x14 VARNAME x VARID c:mythread.h@138@F@task1#I#@x FUNCNAME _Z5task1i SYNCS ASYNC id 113 INVNO 1
READ THREADID 1 VARCLASS GLOBAL ADDRESS 0x60607c VARNAME a VARID c:@a FUNCNAME _Z5task1i SYNCS ASYNC id 114 INVNO 1
WRITE THREADID 1 VARCLASS GLOBAL ADDRESS 0x60607c VARNAME a VARID c:@a FUNCNAME _Z5task1i SYNCS ASYNC id 115 INVNO 1
READ THREADID 1 VARCLASS LOCAL OFFSET 0x4 VARNAME i VARID c:mythread.h@152@F@task1#I#@i FUNCNAME _Z5task1i SYNCS ASYNC id 116 INVNO 1
READ THREADID 1 VARCLASS LOCAL OFFSET 0x4 VARNAME i VARID c:mythread.h@152@F@task1#I#@i FUNCNAME _Z5task1i SYNCS ASYNC id 117 INVNO 1
READ THREADID 1 VARCLASS LOCAL OFFSET 0x14 VARNAME x VARID c:mythread.h@138@F@task1#I#@x FUNCNAME _Z5task1i SYNCS ASYNC id 118 INVNO 1
READ THREADID 1 VARCLASS GLOBAL ADDRESS 0x60607c VARNAME a VARID c:@a FUNCNAME _Z5task1i SYNCS ASYNC id 119 INVNO 1
WRITE THREADID 1 VARCLASS GLOBAL ADDRESS 0x60607c VARNAME a VARID c:@a FUNCNAME _Z5task1i SYNCS ASYNC id 120 INVNO 1
READ THREADID 1 VARCLASS LOCAL OFFSET 0x4 VARNAME i VARID c:mythread.h@152@F@task1#I#@i FUNCNAME _Z5task1i SYNCS ASYNC id 121 INVNO 1
READ THREADID 1 VARCLASS LOCAL OFFSET 0x4 VARNAME i VARID c:mythread.h@152@F@task1#I#@i FUNCNAME _Z5task1i SYNCS ASYNC id 122 INVNO 1
READ THREADID 1 VARCLASS LOCAL OFFSET 0x14 VARNAME x VARID c:mythread.h@138@F@task1#I#@x FUNCNAME _Z5task1i SYNCS ASYNC id 123 INVNO 1
READ THREADID 1 VARCLASS GLOBAL ADDRESS 0x60607c VARNAME a VARID c:@a FUNCNAME _Z5task1i SYNCS ASYNC id 124 INVNO 1
WRITE THREADID 1 VARCLASS GLOBAL ADDRESS 0x60607c VARNAME a VARID c:@a FUNCNAME _Z5task1i SYNCS ASYNC id 125 INVNO 1
READ THREADID 1 VARCLASS LOCAL OFFSET 0x4 VARNAME i VARID c:mythread.h@152@F@task1#I#@i FUNCNAME _Z5task1i SYNCS ASYNC id 126 INVNO 1
READ THREADID 1 VARCLASS LOCAL OFFSET 0x4 VARNAME i VARID c:mythread.h@152@F@task1#I#@i FUNCNAME _Z5task1i SYNCS ASYNC id 127 INVNO 1
READ THREADID 1 VARCLASS LOCAL OFFSET 0x14 VARNAME x VARID c:mythread.h@138@F@task1#I#@x FUNCNAME _Z5task1i SYNCS ASYNC id 128 INVNO 1
READ THREADID 1 VARCLASS GLOBAL ADDRESS 0x60607c VARNAME a VARID c:@a FUNCNAME _Z5task1i SYNCS ASYNC id 129 INVNO 1
WRITE THREADID 1 VARCLASS GLOBAL ADDRESS 0x60607c VARNAME a VARID c:@a FUNCNAME _Z5task1i SYNCS ASYNC id 130 INVNO 1
READ THREADID 1 VARCLASS LOCAL OFFSET 0x4 VARNAME i VARID c:mythread.h@152@F@task1#I#@i FUNCNAME _Z5task1i SYNCS ASYNC id 131 INVNO 1
READ THREADID 1 VARCLASS LOCAL OFFSET 0x4 VARNAME i VARID c:mythread.h@152@F@task1#I#@i FUNCNAME _Z5task1i SYNCS ASYNC id 132 INVNO 1
READ THREADID 1 VARCLASS LOCAL OFFSET 0x14 VARNAME x VARID c:mythread.h@138@F@task1#I#@x FUNCNAME _Z5task1i SYNCS ASYNC id 133 INVNO 1
READ THREADID 1 VARCLASS GLOBAL ADDRESS 0x60607c VARNAME a VARID c:@a FUNCNAME _Z5task1i SYNCS ASYNC id 134 INVNO 1
WRITE THREADID 1 VARCLASS GLOBAL ADDRESS 0x60607c VARNAME a VARID c:@a FUNCNAME _Z5task1i SYNCS ASYNC id 135 INVNO 1
READ THREADID 1 VARCLASS LOCAL OFFSET 0x4 VARNAME i VARID c:mythread.h@152@F@task1#I#@i FUNCNAME _Z5task1i SYNCS ASYNC id 136 INVNO 1
READ THREADID 1 VARCLASS LOCAL OFFSET 0x4 VARNAME i VARID c:mythread.h@152@F@task1#I#@i FUNCNAME _Z5task1i SYNCS ASYNC id 137 INVNO 1
READ THREADID 1 VARCLASS LOCAL OFFSET 0x14 VARNAME x VARID c:mythread.h@138@F@task1#I#@x FUNCNAME _Z5task1i SYNCS ASYNC id 138 INVNO 1
READ THREADID 1 VARCLASS GLOBAL ADDRESS 0x60607c VARNAME a VARID c:@a FUNCNAME _Z5task1i SYNCS ASYNC id 139 INVNO 1
WRITE THREADID 1 VARCLASS GLOBAL ADDRESS 0x60607c VARNAME a VARID c:@a FUNCNAME _Z5task1i SYNCS ASYNC id 140 INVNO 1
READ THREADID 1 VARCLASS LOCAL OFFSET 0x4 VARNAME i VARID c:mythread.h@152@F@task1#I#@i FUNCNAME _Z5task1i SYNCS ASYNC id 141 INVNO 1
READ THREADID 1 VARCLASS LOCAL OFFSET 0x4 VARNAME i VARID c:mythread.h@152@F@task1#I#@i FUNCNAME _Z5task1i SYNCS ASYNC id 142 INVNO 1
READ THREADID 1 VARCLASS LOCAL OFFSET 0x14 VARNAME x VARID c:mythread.h@138@F@task1#I#@x FUNCNAME _Z5task1i SYNCS ASYNC id 143 INVNO 1
READ THREADID 1 VARCLASS GLOBAL ADDRESS 0x60607c VARNAME a VARID c:@a FUNCNAME _Z5task1i SYNCS ASYNC id 144 INVNO 1
WRITE THREADID 1 VARCLASS GLOBAL ADDRESS 0x60607c VARNAME a VARID c:@a FUNCNAME _Z5task1i SYNCS ASYNC id 145 INVNO 1
READ THREADID 1 VARCLASS LOCAL OFFSET 0x4 VARNAME i VARID c:mythread.h@152@F@task1#I#@i FUNCNAME _Z5task1i SYNCS ASYNC id 146 INVNO 1
READ THREADID 1 VARCLASS LOCAL OFFSET 0x4 VARNAME i VARID c:mythread.h@152@F@task1#I#@i FUNCNAME _Z5task1i SYNCS ASYNC id 147 INVNO 1
READ THREADID 1 VARCLASS LOCAL OFFSET 0x14 VARNAME x VARID c:mythread.h@138@F@task1#I#@x FUNCNAME _Z5task1i SYNCS ASYNC id 148 INVNO 1
READ THREADID 1 VARCLASS GLOBAL ADDRESS 0x60607c VARNAME a VARID c:@a FUNCNAME _Z5task1i SYNCS ASYNC id 149 INVNO 1
WRITE THREADID 1 VARCLASS GLOBAL ADDRESS 0x60607c VARNAME a VARID c:@a FUNCNAME _Z5task1i SYNCS ASYNC id 150 INVNO 1
READ THREADID 1 VARCLASS LOCAL OFFSET 0x4 VARNAME i VARID c:mythread.h@152@F@task1#I#@i FUNCNAME _Z5task1i SYNCS ASYNC id 151 INVNO 1
READ THREADID 1 VARCLASS LOCAL OFFSET 0x4 VARNAME i VARID c:mythread.h@152@F@task1#I#@i FUNCNAME _Z5task1i SYNCS ASYNC id 152 INVNO 1
READ THREADID 1 VARCLASS LOCAL OFFSET 0x14 VARNAME x VARID c:mythread.h@138@F@task1#I#@x FUNCNAME _Z5task1i SYNCS ASYNC id 153 INVNO 1
READ THREADID 1 VARCLASS GLOBAL ADDRESS 0x60607c VARNAME a VARID c:@a FUNCNAME _Z5task1i SYNCS ASYNC id 154 INVNO 1
WRITE THREADID 1 VARCLASS GLOBAL ADDRESS 0x60607c VARNAME a VARID c:@a FUNCNAME _Z5task1i SYNCS ASYNC id 155 INVNO 1
READ THREADID 1 VARCLASS LOCAL OFFSET 0x4 VARNAME i VARID c:mythread.h@152@F@task1#I#@i FUNCNAME _Z5task1i SYNCS ASYNC id 156 INVNO 1
READ THREADID 1 VARCLASS LOCAL OFFSET 0x4 VARNAME i VARID c:mythread.h@152@F@task1#I#@i FUNCNAME _Z5task1i SYNCS ASYNC id 157 INVNO 1
READ THREADID 1 VARCLASS LOCAL OFFSET 0x14 VARNAME x VARID c:mythread.h@138@F@task1#I#@x FUNCNAME _Z5task1i SYNCS ASYNC id 158 INVNO 1
READ THREADID 1 VARCLASS GLOBAL ADDRESS 0x60607c VARNAME a VARID c:@a FUNCNAME _Z5task1i SYNCS ASYNC id 159 INVNO 1
WRITE THREADID 1 VARCLASS GLOBAL ADDRESS 0x60607c VARNAME a VARID c:@a FUNCNAME _Z5task1i SYNCS ASYNC id 160 INVNO 1
READ THREADID 1 VARCLASS LOCAL OFFSET 0x4 VARNAME i VARID c:mythread.h@152@F@task1#I#@i FUNCNAME _Z5task1i SYNCS ASYNC id 161 INVNO 1
READ THREADID 1 VARCLASS LOCAL OFFSET 0x4 VARNAME i VARID c:mythread.h@152@F@task1#I#@i FUNCNAME _Z5task1i SYNCS ASYNC id 162 INVNO 1
READ THREADID 1 VARCLASS LOCAL OFFSET 0x14 VARNAME x VARID c:mythread.h@138@F@task1#I#@x FUNCNAME _Z5task1i SYNCS ASYNC id 163 INVNO 1
READ THREADID 1 VARCLASS GLOBAL ADDRESS 0x60607c VARNAME a VARID c:@a FUNCNAME _Z5task1i SYNCS ASYNC id 164 INVNO 1
WRITE THREADID 1 VARCLASS GLOBAL ADDRESS 0x60607c VARNAME a VARID c:@a FUNCNAME _Z5task1i SYNCS ASYNC id 165 INVNO 1
READ THREADID 1 VARCLASS LOCAL OFFSET 0x4 VARNAME i VARID c:mythread.h@152@F@task1#I#@i FUNCNAME _Z5task1i SYNCS ASYNC id 166 INVNO 1
READ THREADID 1 VARCLASS LOCAL OFFSET 0x4 VARNAME i VARID c:mythread.h@152@F@task1#I#@i FUNCNAME _Z5task1i SYNCS ASYNC id 167 INVNO 1
READ THREADID 1 VARCLASS LOCAL OFFSET 0x14 VARNAME x VARID c:mythread.h@138@F@task1#I#@x FUNCNAME _Z5task1i SYNCS ASYNC id 168 INVNO 1
READ THREADID 1 VARCLASS GLOBAL ADDRESS 0x60607c VARNAME a VARID c:@a FUNCNAME _Z5task1i SYNCS ASYNC id 169 INVNO 1
WRITE THREADID 1 VARCLASS GLOBAL ADDRESS 0x60607c VARNAME a VARID c:@a FUNCNAME _Z5task1i SYNCS ASYNC id 170 INVNO 1
READ THREADID 1 VARCLASS LOCAL OFFSET 0x4 VARNAME i VARID c:mythread.h@152@F@task1#I#@i FUNCNAME _Z5task1i SYNCS ASYNC id 171 INVNO 1
READ THREADID 1 VARCLASS LOCAL OFFSET 0x4 VARNAME i VARID c:mythread.h@152@F@task1#I#@i FUNCNAME _Z5task1i SYNCS ASYNC id 172 INVNO 1
READ THREADID 1 VARCLASS LOCAL OFFSET 0x14 VARNAME x VARID c:mythread.h@138@F@task1#I#@x FUNCNAME _Z5task1i SYNCS ASYNC id 173 INVNO 1
READ THREADID 1 VARCLASS GLOBAL ADDRESS 0x60607c VARNAME a VARID c:@a FUNCNAME _Z5task1i SYNCS ASYNC id 174 INVNO 1
WRITE THREADID 1 VARCLASS GLOBAL ADDRESS 0x60607c VARNAME a VARID c:@a FUNCNAME _Z5task1i SYNCS ASYNC id 175 INVNO 1
READ THREADID 1 VARCLASS LOCAL OFFSET 0x4 VARNAME i VARID c:mythread.h@152@F@task1#I#@i FUNCNAME _Z5task1i SYNCS ASYNC id 176 INVNO 1
READ THREADID 1 VARCLASS LOCAL OFFSET 0x4 VARNAME i VARID c:mythread.h@152@F@task1#I#@i FUNCNAME _Z5task1i SYNCS ASYNC id 177 INVNO 1
READ THREADID 1 VARCLASS LOCAL OFFSET 0x14 VARNAME x VARID c:mythread.h@138@F@task1#I#@x FUNCNAME _Z5task1i SYNCS ASYNC id 178 INVNO 1
READ THREADID 1 VARCLASS GLOBAL ADDRESS 0x60607c VARNAME a VARID c:@a FUNCNAME _Z5task1i SYNCS ASYNC id 179 INVNO 1
WRITE THREADID 1 VARCLASS GLOBAL ADDRESS 0x60607c VARNAME a VARID c:@a FUNCNAME _Z5task1i SYNCS ASYNC id 180 INVNO 1
READ THREADID 1 VARCLASS LOCAL OFFSET 0x4 VARNAME i VARID c:mythread.h@152@F@task1#I#@i FUNCNAME _Z5task1i SYNCS ASYNC id 181 INVNO 1
READ THREADID 1 VARCLASS LOCAL OFFSET 0x4 VARNAME i VARID c:mythread.h@152@F@task1#I#@i FUNCNAME _Z5task1i SYNCS ASYNC id 182 INVNO 1
READ THREADID 1 VARCLASS LOCAL OFFSET 0x14 VARNAME x VARID c:mythread.h@138@F@task1#I#@x FUNCNAME _Z5task1i SYNCS ASYNC id 183 INVNO 1
READ THREADID 1 VARCLASS GLOBAL ADDRESS 0x60607c VARNAME a VARID c:@a FUNCNAME _Z5task1i SYNCS ASYNC id 184 INVNO 1
WRITE THREADID 1 VARCLASS GLOBAL ADDRESS 0x60607c VARNAME a VARID c:@a FUNCNAME _Z5task1i SYNCS ASYNC id 185 INVNO 1
READ THREADID 1 VARCLASS LOCAL OFFSET 0x4 VARNAME i VARID c:mythread.h@152@F@task1#I#@i FUNCNAME _Z5task1i SYNCS ASYNC id 186 INVNO 1
READ THREADID 1 VARCLASS LOCAL OFFSET 0x4 VARNAME i VARID c:mythread.h@152@F@task1#I#@i FUNCNAME _Z5task1i SYNCS ASYNC id 187 INVNO 1
READ THREADID 1 VARCLASS LOCAL OFFSET 0x14 VARNAME x VARID c:mythread.h@138@F@task1#I#@x FUNCNAME _Z5task1i SYNCS ASYNC id 188 INVNO 1
READ THREADID 1 VARCLASS GLOBAL ADDRESS 0x60607c VARNAME a VARID c:@a FUNCNAME _Z5task1i SYNCS ASYNC id 189 INVNO 1
WRITE THREADID 1 VARCLASS GLOBAL ADDRESS 0x60607c VARNAME a VARID c:@a FUNCNAME _Z5task1i SYNCS ASYNC id 190 INVNO 1
READ THREADID 1 VARCLASS LOCAL OFFSET 0x4 VARNAME i VARID c:mythread.h@152@F@task1#I#@i FUNCNAME _Z5task1i SYNCS ASYNC id 191 INVNO 1
READ THREADID 1 VARCLASS LOCAL OFFSET 0x4 VARNAME i VARID c:mythread.h@152@F@task1#I#@i FUNCNAME _Z5task1i SYNCS ASYNC id 192 INVNO 1
READ THREADID 1 VARCLASS LOCAL OFFSET 0x14 VARNAME x VARID c:mythread.h@138@F@task1#I#@x FUNCNAME _Z5task1i SYNCS ASYNC id 193 INVNO 1
READ THREADID 1 VARCLASS GLOBAL ADDRESS 0x60607c VARNAME a VARID c:@a FUNCNAME _Z5task1i SYNCS ASYNC id 194 INVNO 1
WRITE THREADID 1 VARCLASS GLOBAL ADDRESS 0x60607c VARNAME a VARID c:@a FUNCNAME _Z5task1i SYNCS ASYNC id 195 INVNO 1
READ THREADID 1 VARCLASS LOCAL OFFSET 0x4 VARNAME i VARID c:mythread.h@152@F@task1#I#@i FUNCNAME _Z5task1i SYNCS ASYNC id 196 INVNO 1
READ THREADID 1 VARCLASS LOCAL OFFSET 0x4 VARNAME i VARID c:mythread.h@152@F@task1#I#@i FUNCNAME _Z5task1i SYNCS ASYNC id 197 INVNO 1
READ THREADID 1 VARCLASS LOCAL OFFSET 0x14 VARNAME x VARID c:mythread.h@138@F@task1#I#@x FUNCNAME _Z5task1i SYNCS ASYNC id 198 INVNO 1
READ THREADID 1 VARCLASS GLOBAL ADDRESS 0x60607c VARNAME a VARID c:@a FUNCNAME _Z5task1i SYNCS ASYNC id 199 INVNO 1
WRITE THREADID 1 VARCLASS GLOBAL ADDRESS 0x60607c VARNAME a VARID c:@a FUNCNAME _Z5task1i SYNCS ASYNC id 200 INVNO 1
READ THREADID 1 VARCLASS LOCAL OFFSET 0x4 VARNAME i VARID c:mythread.h@152@F@task1#I#@i FUNCNAME _Z5task1i SYNCS ASYNC id 201 INVNO 1
READ THREADID 1 VARCLASS LOCAL OFFSET 0x4 VARNAME i VARID c:mythread.h@152@F@task1#I#@i FUNCNAME _Z5task1i SYNCS ASYNC id 202 INVNO 1
READ THREADID 1 VARCLASS LOCAL OFFSET 0x14 VARNAME x VARID c:mythread.h@138@F@task1#I#@x FUNCNAME _Z5task1i SYNCS ASYNC id 203 INVNO 1
READ THREADID 1 VARCLASS GLOBAL ADDRESS 0x60607c VARNAME a VARID c:@a FUNCNAME _Z5task1i SYNCS ASYNC id 204 INVNO 1
WRITE THREADID 1 VARCLASS GLOBAL ADDRESS 0x60607c VARNAME a VARID c:@a FUNCNAME _Z5task1i SYNCS ASYNC id 205 INVNO 1
READ THREADID 1 VARCLASS LOCAL OFFSET 0x4 VARNAME i VARID c:mythread.h@152@F@task1#I#@i FUNCNAME _Z5task1i SYNCS ASYNC id 206 INVNO 1
READ THREADID 1 VARCLASS LOCAL OFFSET 0x4 VARNAME i VARID c:mythread.h@152@F@task1#I#@i FUNCNAME _Z5task1i SYNCS ASYNC id 207 INVNO 1
READ THREADID 1 VARCLASS LOCAL OFFSET 0x14 VARNAME x VARID c:mythread.h@138@F@task1#I#@x FUNCNAME _Z5task1i SYNCS ASYNC id 208 INVNO 1
READ THREADID 1 VARCLASS GLOBAL ADDRESS 0x60607c VARNAME a VARID c:@a FUNCNAME _Z5task1i SYNCS ASYNC id 209 INVNO 1
WRITE THREADID 1 VARCLASS GLOBAL ADDRESS 0x60607c VARNAME a VARID c:@a FUNCNAME _Z5task1i SYNCS ASYNC id 210 INVNO 1
READ THREADID 1 VARCLASS LOCAL OFFSET 0x4 VARNAME i VARID c:mythread.h@152@F@task1#I#@i FUNCNAME _Z5task1i SYNCS ASYNC id 211 INVNO 1
READ THREADID 1 VARCLASS LOCAL OFFSET 0x4 VARNAME i VARID c:mythread.h@152@F@task1#I#@i FUNCNAME _Z5task1i SYNCS ASYNC id 212 INVNO 1
READ THREADID 1 VARCLASS LOCAL OFFSET 0x14 VARNAME x VARID c:mythread.h@138@F@task1#I#@x FUNCNAME _Z5task1i SYNCS ASYNC id 213 INVNO 1
READ THREADID 1 VARCLASS GLOBAL ADDRESS 0x60607c VARNAME a VARID c:@a FUNCNAME _Z5task1i SYNCS ASYNC id 214 INVNO 1
WRITE THREADID 1 VARCLASS GLOBAL ADDRESS 0x60607c VARNAME a VARID c:@a FUNCNAME _Z5task1i SYNCS ASYNC id 215 INVNO 1
READ THREADID 1 VARCLASS LOCAL OFFSET 0x4 VARNAME i VARID c:mythread.h@152@F@task1#I#@i FUNCNAME _Z5task1i SYNCS ASYNC id 216 INVNO 1
READ THREADID 1 VARCLASS LOCAL OFFSET 0x4 VARNAME i VARID c:mythread.h@152@F@task1#I#@i FUNCNAME _Z5task1i SYNCS ASYNC id 217 INVNO 1
READ THREADID 1 VARCLASS LOCAL OFFSET 0x14 VARNAME x VARID c:mythread.h@138@F@task1#I#@x FUNCNAME _Z5task1i SYNCS ASYNC id 218 INVNO 1
READ THREADID 1 VARCLASS GLOBAL ADDRESS 0x60607c VARNAME a VARID c:@a FUNCNAME _Z5task1i SYNCS ASYNC id 219 INVNO 1
WRITE THREADID 1 VARCLASS GLOBAL ADDRESS 0x60607c VARNAME a VARID c:@a FUNCNAME _Z5task1i SYNCS ASYNC id 220 INVNO 1
READ THREADID 1 VARCLASS LOCAL OFFSET 0x4 VARNAME i VARID c:mythread.h@152@F@task1#I#@i FUNCNAME _Z5task1i SYNCS ASYNC id 221 INVNO 1
READ THREADID 1 VARCLASS LOCAL OFFSET 0x4 VARNAME i VARID c:mythread.h@152@F@task1#I#@i FUNCNAME _Z5task1i SYNCS ASYNC id 222 INVNO 1
READ THREADID 1 VARCLASS LOCAL OFFSET 0x14 VARNAME x VARID c:mythread.h@138@F@task1#I#@x FUNCNAME _Z5task1i SYNCS ASYNC id 223 INVNO 1
READ THREADID 1 VARCLASS GLOBAL ADDRESS 0x60607c VARNAME a VARID c:@a FUNCNAME _Z5task1i SYNCS ASYNC id 224 INVNO 1
WRITE THREADID 1 VARCLASS GLOBAL ADDRESS 0x60607c VARNAME a VARID c:@a FUNCNAME _Z5task1i SYNCS ASYNC id 225 INVNO 1
READ THREADID 1 VARCLASS LOCAL OFFSET 0x4 VARNAME i VARID c:mythread.h@152@F@task1#I#@i FUNCNAME _Z5task1i SYNCS ASYNC id 226 INVNO 1
READ THREADID 1 VARCLASS LOCAL OFFSET 0x4 VARNAME i VARID c:mythread.h@152@F@task1#I#@i FUNCNAME _Z5task1i SYNCS ASYNC id 227 INVNO 1
READ THREADID 1 VARCLASS LOCAL OFFSET 0x14 VARNA2 VARCLASS LOCAL OFFSET 0x8@F@task1#I#@x FUNCNAME _Z5task1i SYNCS ASYNC id 228 INVNO 1
READ THREADID 1 VARCLASS GLOBAL ADDRESS 0x60607c VARNAME a VARID c:@a FUNCNAME _Z5task1i SYNCS ASYNC id 229 INVNO 1
WRITE THREADID 1 VARCLASS GLOBAL ADDRESS 0x60607c VARNAME a VARID c:@a FUNCNAME _Z5task1i SYNCS ASYNC id 230 INVNO 1
READ THREADID 1 VARCLASS LOCAL OFFSET 0x4 VARNAME i VARID c:mythread.h@152@F@task1#I#@i FUNCNAME _Z5task1i SYNCS ASYNC id 231 INVNO 1
READ THREADID 1 VARCLASS LOCAL OFFSET 0x4 VARNAME i VARID c:mythread.h@152@F@task1#I#@i FUNCNAME _Z5task1i SYNCS ASYNC id 232 INVNO 1
READ THREADID 1 VARCLASS LOCAL OFFSET 0x14 VARNAME x VARID c:mythread.h@138@F@task1#I#@x FUNCNAME _Z5task1i SYNCS ASYNC id 233 INVNO 1
READ THREADID 1 VARCLASS GLOBAL ADDRESS 0x60607c VARNAME a VARID c:@a FUNCNAME _Z5task1i SYNCS ASYNC id 234 INVNO 1
WRITE THREADID 1 VARCLASS GLOBAL ADDRESS 0x60607c VARNAME a VARID c:@a FUNCNAME _Z5task1i SYNCS ASYNC id 235 INVNO 1
READ THREADID 1 VARCLASS LOCAL OFFSET 0x4 VARNAME i VARID c:mythread.h@152@F@task1#I#@i FUNCNAME _Z5task1i SYNCS ASYNC id 236 INVNO 1
READ THREADID 1 VARCLASS LOCAL OFFSET 0x4 VARNAME i VARID c:mythread.h@152@F@task1#I#@i FUNCNAME _Z5task1i SYNCS ASYNC id 237 INVNO 1
READ THREADID 1 VARCLASS LOCAL OFFSET 0x14 VARNAME x VARID c:mythread.h@138@F@task1#I#@x FUNCNAME _Z5task1i SYNCS ASYNC id 238 INVNO 1
READ THREADID 1 VARCLASS GLOBAL ADDRESS 0x60607c VARNAME a VARID c:@a FUNCNAME _Z5task1i SYNCS ASYNC id 239 INVNO 1
WRITE THREADID 1 VARCLASS GLOBAL ADDRESS 0x60607c VARNAME a VARID c:@a FUNCNAME _Z5task1i SYNCS ASYNC id 240 INVNO 1
READ THREADID 1 VARCLASS LOCAL OFFSET 0x4 VARNAME i VARID c:mythread.h@152@F@task1#I#@i FUNCNAME _Z5task1i SYNCS ASYNC id 241 INVNO 1
READ THREADID 1 VARCLASS LOCAL OFFSET 0x4 VARNAME i VARID c:mythread.h@152@F@task1#I#@i FUNCNAME _Z5task1i SYNCS ASYNC id 242 INVNO 1
READ THREADID 1 VARCLASS LOCAL OFFSET 0x14 VARNAME x VARID c:mythread.h@138@F@task1#I#@x FUNCNAME _Z5task1i SYNCS ASYNC id 243 INVNO 1
READ THREADID 1 VARCLASS GLOBAL ADDRESS 0x60607c VARNAME a VARID c:@a FUNCNAME _Z5task1i SYNCS ASYNC id 244 INVNO 1
WRITE THREADID 1 VARCLASS GLOBAL ADDRESS 0x60607c VARNAME a VARID c:@a FUNCNAME _Z5task1i SYNCS ASYNC id 245 INVNO 1
READ THREADID 1 VARCLASS LOCAL OFFSET 0x4 VARNAME i VARID c:mythread.h@152@F@task1#I#@i FUNCNAME _Z5task1i SYNCS ASYNC id 246 INVNO 1
READ THREADID 1 VARCLASS LOCAL OFFSET 0x4 VARNAME i VARID c:mythread.h@152@F@task1#I#@i FUNCNAME _Z5task1i SYNCS ASYNC id 247 INVNO 1
READ THREADID 1 VARCLASS LOCAL OFFSET 0x14 VARNAME x VARID c:mythread.h@138@F@task1#I#@x FUNCNAME _Z5task1i SYNCS ASYNC id 248 INVNO 1
READ THREADID 1 VARCLASS GLOBAL ADDRESS 0x60607c VARNAME a VARID c:@a FUNCNAME _Z5task1i SYNCS ASYNC id 249 INVNO 1
WRITE THREADID 1 VARCLASS GLOBAL ADDRESS 0x60607c VARNAME a VARID c:@a FUNCNAME _Z5task1i SYNCS ASYNC id 250 INVNO 1
READ THREADID 1 VARCLASS LOCAL OFFSET 0x4 VARNAME i VARID c:mythread.h@152@F@task1#I#@i FUNCNAME _Z5task1i SYNCS ASYNC id 251 INVNO 1
READ THREADID 1 VARCLASS LOCAL OFFSET 0x4 VARNAME i VARID c:mythread.h@152@F@task1#I#@i FUNCNAME _Z5task1i SYNCS ASYNC id 252 INVNO 1
READ THREADID 1 VARCLASS LOCAL OFFSET 0x14 VARNAME x VARID c:mythread.h@138@F@task1#I#@x FUNCNAME _Z5task1i SYNCS ASYNC id 253 INVNO 1
READ THREADID 1 VARCLASS GLOBAL ADDRESS 0x60607c VARNAME a VARID c:@a FUNCNAME _Z5task1i SYNCS ASYNC id 254 INVNO 1
WRITE THREADID 1 VARCLASS GLOBAL ADDRESS 0x60607c VARNAME a VARID c:@a FUNCNAME _Z5task1i SYNCS ASYNC id 255 INVNO 1
READ THREADID 1 VARCLASS LOCAL OFFSET 0x4 VARNAME i VARID c:mythread.h@152@F@task1#I#@i FUNCNAME _Z5task1i SYNCS ASYNC id 256 INVNO 1
READ THREADID 1 VARCLASS LOCAL OFFSET 0x4 VARNAME i VARID c:mythread.h@152@F@task1#I#@i FUNCNAME _Z5task1i SYNCS ASYNC id 257 INVNO 1
READ THREADID 1 VARCLASS LOCAL OFFSET 0x14 VARNAME x VARID c:mythread.h@138@F@task1#I#@x FUNCNAME _Z5task1i SYNCS ASYNC id 258 INVNO 1
READ THREADID 1 VARCLASS GLOBAL ADDRESS 0x60607c VARNAME a VARID c:@a FUNCNAME _Z5task1i SYNCS ASYNC id 259 INVNO W
ITEY THREADID WRITE THREADID 1 VARCLASS GLOBAL ADDRESS 0x60607c VARNAME a VAR1 VARCLASS GLOBAL ADDRESS 0x60607c VARNAME a VARID c:@a FUNCNAME _Z5task1i SYNCS ASYNC id 301 INVNO 1
WRITE THREADID 1 VARCLASS GLOBAL ADDRESS 0x60607c VARNAME a VARID c:@a FUNCNAME _Z5task1i SYNCS ASYNC id 302 INVNO 1
READ THREADID 1 VARCLASS LOCAL OFFSET 0x4 VARNAME i VARID c:mythread.h@152@F@task1#I#@i FUNCNAME _Z5task1i VARNAME i VARID  VARCLASS LOCAL_Z5task1i SYNCS ASYNC id 4 VARNAME i VARID 263 INVNO ME _Z5task1i SYNCS 1
264RINVN THREADID 1
2 VARCLASS LOCAL OFFSET 0xREAD THREADID 14 VARNAME 1c:mythread.h@138@F@task1#I#@x FUNCNAME  VARCLASS _Z5ta OFFSET 0 SYNCS ASYNC id 4265 VARNAME iINVNO  c:mythread.h@152@F@task1#I#@ FUNCNAME _Z5task1i1
266 INVNO READ THREADID 21 VARCLASS 
 ADDRESS 0x606R7cD i THREAD VARNAME a VARID c:@a1_Z5task1i SYNCS ASYNC id  VARCLASS LOCAL INVNO 14 VARNAME x VARID 1 _Z5task1i SYNCS ASYNC id 268 INVNO 2 VARCLASS GLOBAL1
60607c VAR THREADIDa VARID 1 VARCLASS GLOBALASYNC id 2696316156 INVNO  VARNAME a VARID c:@a FUNCNAME 1 SYNCS ASYNC id 270RINV THREADID x4 21L OFFSET 0x4RITE THREADID  VARNAME i VARID c:mythread.h@152@F@task1#I#@i1_Z5task1i SYNCS ASYNC  VARCLASS  VAGLOBAL ADDRESS 0x271 INVNO 60607c1 VARNAME a VARID 
:@a FUNCNAME _Z5task1i SYNCS ASYNC id READ THREADID 272 INVNO 2 VARCLASS LOCAL OFFSET 0x1
4 VARNAME iREAD_Z5task1i SYNCS ASYNC id 1 VARCLASS LOCAL OFFSET 0x273 INVNO 41 VARNAME i
VARID c:mythread._Z5task1i SYNCS ASYNC id READ THREADID 2742 INVNO OFFSET 0x141 VARNAME x VARID c:mythread.h@138@F@task1#I#@x FUNCNAME 
Z5task1i SYNCS ASYNC id 275 EAD INVNO 1 VARCLASS LOCAL1 OFFSET 0x 4 THREADID  VARNAME i VARID 2_Z5task1i SYNCS ASYNC  VARCLASS GLOBAL ADDRESS 0x60607c276 VARNAME a VARID c:@a FUNCNAME  INVNO 1i SYNCS ASYNC id 2771 INVNO 
1READ THREADID 1RITE THREA VARCLASS LOCAL OFFSET 0x14 VARNAME 2 VARID c:mythreadGLOBAL ADDRESS 0x@x FUNCNAME _Z5task1i SYNCS ASYNC id 60607c VARNAME a VARID 278_Z5task1i SYNCS ASYNC id  INVNO 279 INVNO 1
1READ THREADID 
1 VARCLASS GLOBAL ADDRESS 0xREAD THREADID 60607c2 VARNAME a VARID c:@a FUNCNAME _Z5tCLASS SYNCS OFFSETASYNC id 4 VARNAME i VARID 280 FUNCNAME  INVNO 1i SYNCS ASYNC id 1281
 INVNO WRITE THREADID 1
1 VARCLASS GLOBALREAD THREADID 2 VARCLASS LOCAL60607c VARNAME a4VARID c:@a FUNCNAME _Z5task1i VARNAMASYNC id c:mythread.h@152@F@task1#I#@i FUNCNAME _Z5task1i SYNCS ASYNC id 282283 INVNO  INVNO 1
1
READ THREADID 1 VARCLASS LOCAL2 VARCLASS LOCAL OFFSET 0x4 VARNAME i14 FUNCNAME _Z5task1ix VARID  SYNCS ASYNC _Z5task1i ASYNC id 284 INVNO 285 INVNO 11

READ THREADID 2EAD THREAD VARCLASS GLOBAL ADDRESS 0x1 VARCLASS LOCAL OFFSET 0x60607c VARNAME a VARID 4_Z5task1i SYNCS ASYNC id  VARNAME i VARID 286 INVNO ME  SYNASYNC 1id 
287WINVNO  THREADID 12
VARCLASS GLOBAL ADDRESS 0x60607cREAD THREA VARID c:@a FUNCNAME _Z5task1i SYNCS ASYNC 1 VARCLASS LOCAL OFFSET 0x288 INVNO 141 VARNAME 
 VARID c:mythread.h@138@F@task1#I#@x FUNCNAME _Z5task1i SYNCS ASYNC id READ THREADID 289 INVNO 2 VARCLASS LOCAL OFFSET 0x14
 VARNAME i VARID c:mythread.h@152@F@task1#I#@iREAD THREAid  ask1i 290 INVNO 1 VARCLASS GLOBAL ADDRESS 0x1
60607c VARNAME a VARID c:@aREAD THREA_Z5task1i SYNCS ASYNC id 2 VARCLASS LOCAL291 INVNO 4 VARNAME 1c:mythread.h@152@F@task1#I#@i FUNCNAME _Z5task1i SYNCS ASYNC 
292 THREADID  INVNO 1 VARCLASS GLOBAL ADDRESS 0x160607c
 VARNAME a VARID c:@a FUNCNAME _Z5t THRE SYNCS ASYNC id 2 VARCLASS LOCAL OFFSET 0x293 INVNO 14 VARNAME x VARID c:mythread.h@138@F@task1#I#@x FUNCNAME _Z5task1i SYNCS ASYNC id 1
294 INVNO 1EAD THREADID 
READ1 VARCLASS LOCAL2 VARCLASS GLOBAL ADDRESS 0x460607c VARNAME i VARID c:mythread.h@152@F@task1#I#@i FUNCNAME  VARNAME a VARID c:@a FUNCNAME _Z5task1i SYNCS ASYNC id 295296 INVNO  INVNO 11

WRITE THREADID 2 THREADID  VARCLASS GLOBAL ADDRESS 0x60607c1 VARNAME a VARID c:@a FUNCNAME  VARCLASS SYNCS ASYNC id 4 VARNAME i VARID 297 INVNO ME _Z5t1
298READ THREADID INVNO 2 VARCLASS LOCAL OFFSET 0x1
4 VARNAME iREAD THREADID ead.h@152@F@task1#I FUNCNAME _Z5task1i SYNCS ASYNC 1 VARCLASS LOCAL OFFSET 0x299 INVNO 14 VARNAME x VARID c:mythread.h@138@F@task1#I#@x FUNCNAME 
Z5task1i SYNCS ASYNC id 300 THREADID EINVNO 21 VARCLASS LOCAL OFFSET 0x
4READ THREA VARID c1 VARCLASS GLOBAL ADDRESS 0x60607c VARNAME a VARID c:@a FUNCNAME _Z5task1i SYNCS ASYNC id 301 INVNO 1
WRITE THREADID 1 VARCLASS GLOBAL ADDRESS 0x60607c VARNAME a VARID c:@a FUNCNAME _Z5task1i SYNCS ASYNC id 302 INVNO 1
READ THREADID 1 VARCLASS LOCAL OFFSET 0x4 VARNAME i VARID c:mythread.h@152@F@task1#I#@i FUNCNAME _Z5task1i SYNCS ASYNC id 303 INVNO 1
READ THREADID 1 VARCLASS LOCAL OFFSET 0x4 VARNAME i VARID c:mythread.h@152@F@task1#I#@i FUNCNAME _Z5task1i SYNCS ASYNC id 304 INVNO 1
READ THREADID 1 VARCLASS LOCAL OFFSET 0x14 VARNAME x VARID c:mythread.h@138@F@task1#I#@x FUNCNAME _Z5task1i SYNCS ASYNC id 305 INVNO 1
READ THREADID 1 VARCLASS GLOBAL ADDRESS 0x60607c VARNAME a VARID c:@a FUNCNAME _Z5task1i SYNCS ASYNC id 306 INVNO 1
WRITE THREADID 1 VARCLASS GLOBAL ADDRESS 0x60607c VARNAME a VARID c:@a FUNCNAME _Z5task1i SYNCS ASYNC id 307 INVNO 1
READ THREADID 1 VARCLASS LOCAL OFFSET 0x4 VARNAME i VARID c:mythread.h@152@F@task1#I#@i FUNCNAME _Z5task1i SYNCS ASYNC id 308 INVNO 1
READ THREADID 1 VARCLASS LOCAL OFFSET 0x4 VARNAME i VARID c:mythread.h@152@F@task1#I#@i FUNCNAME _Z5task1i SYNCS ASYNC id 309 INVNO 1
READ THREADID 1 VARCLASS LOCAL OFFSET 0x14 VARNAME x VARID c:mythread.h@138@F@task1#I#@x FUNCNAME _Z5task1i SYNCS ASYNC id 310 INVNO 1
:mythread.h@152@F@task1#I#@iREAD THREADID _Z5task1i SYNCS 1SYNC id  VARCLASS GLOBAL ADDRESS 0x311 INVNO 60607c VARNAME a VARID c:@a FUNCNAME 1 SYNCS ASYNC id 312RINV THREADID 2 VARCLASS LOCAL1
14WRITEAME x VARID c:mythread.h@138@F@task1#I#@x FUNCNAME _Z5task1i SYNCS ASYNC id 1 VARCLASS GLOBAL ADDRESS 0x313 INVNO 60607c VARNAME 1
:@a FUNCNAME _Z5task1i SYNCS ASYNC id READ THREADID 2 VARCLASS GLOBAL314 INVNO 60607c VARNAME a VARID c:@a FUNCNAME 1_Z5task1i SYNCS 
SYNC id 315 THREADID  INVNO 1 VARCLASS LOCAL1
4 VARNAME W VAR THc:mythread.h@152@F@task1#I#@iYNCS ASYNC FUNCNAME _Z5task1i SYNCS ASYNC 2 VARCLASS GLOBAL ADDRESS 0x316 INVNO 60607c VARNAME a VARID 1_Z5task1i SYNCS ASYNC id 
317 INVNO READ THREADID 1
1 VARCLASS LOCAL OFFSET 0xREAD THREADID 4 VARNAME 2 VARCLAc:mythreadLOCAL2@F@task1#I#@i FUNCNAME _Z5task1i SYNCS ASYNC id 4 VARNAME i VARID 318_Z5task1i SYNCS ASYNC id  INVNO 319 INVNO 1
1
READ THREADID READ THREADID 1 VARCLASS LOCAL2 VARCLASS LOCAL OFFSET 0x4 VARNAME i VARID 14 FUNCNAME _Z5task1i VARNAMASYNC id x VARID c:mythread.h@138@F@task1#I#@x320_INVNO 1i SYNCS ASYNC id 1
321 INVNO READ THREADID 1
2 THREADID  VARCLASS LOCAL OFFSET 0x1 VARCLASS 14 VARNAME x VARID c:mythread.h@138@F@task1#I#@x60607c VARNAMASa VARID c:@a FUNCNAME 322task1iid  INVNO 323 INVNO 11
READ THREADID WRITE THREADID 12 VARCLASS GLOBAL ADDRESS 0x VARCLASS GLOBAL ADDRESS 0x60607c60607c VARNAME a VARID c:@a FUNCNAME _Z5task1i SYNCS ASYNC  VARNAME ID a VARID c:@a FUNCNAME  INVNO 1i SYNCS ASYNC id 3251 
1
WRITE THREADID 2READ THREADID AL ADDRESS 0x160607c VARNAME a VARID c:@a FUNCNAME 4Z5task1i SYNCS ASYNC id  VARNAME i VARID c:mythread.h@152@F@task1#I#@i326NCNAMEid  INVNO 327 INVNO 1
1
READ THREADID READ2 VARCLASS LOCAL OFFSET 0x1 VARCLASS LOCAL OFFSET 0x4 VARNAME i4 FUNCNAME  VARNAME  SYNCS ASY VAid  c:mythread.h@152@F@task1#I#@ FUNCNAME _Z5task1i SYNCS ASYNC 328329 INVNO  INVNO 1
1
READ THREADID READ THREADID 1 VARCLASS LOCAL OFFSET 0x2 VARCLASS LOCAL OFFSET 0x144 VARNAME x VARID c:mythread.h@138@F@task1#I#@xi VARID c:mythread.h@152@FASYNC #I#@i FUNCNid  _Z5tasASYNC id 330 INVNO 331 INVNO 1
1READF THREADID READ THREADID 1 VARCLASS GLOBAL ADDRESS 0x260607c VARCLASS LOCAL OFFSET 0x14ARNAME a VARID c:@a FUNCNAME  VARNAME   VARID c:mythid d.h@138@F@task1#I#@x FUNCNAME _Z5task1i SYNCS ASYNC id 332 INVNO 333 INVNO 1
1
WRITE THREADID READ THREADID 12 VARCLASS GLOBAL ADDRESS 0x VARCLASS GLOBAL ADDRESS 0x60607c60607cME a VARID c:@a FUNCNAME _Z5task1i  VARID c:@a Fid _Z5task1i SYNCS ASYNC id 334 INVNO 335 INVNO 1
1
READ THREADID WRITE THREADID 1 VARCLASS LOCAL OFFSET 0x2 VARCLASS GLOBAL ADDRESS 0x4 VARNAME 6 607cD c:mythread.h@152@F@task1# FUNCNAME _Z5task1i SYNCS ASYNC id c:@a FUNCNAME _Z5task1i SYNCS ASYNC id 336 INVNO 1337
 INVNO 1EAD THREADID 
1READ THREADID  VARCLASS LOCAL2 VARCLASS LOCAL OFFSET 0x4 VARNAME i VARID 4 mythread.h@152@F@task1#I#@i FUNCNAME _Z5task1i SYNCS ASYNC id 338 INVNO 1
 SYNCS ASYNC id 301 INVNO 1
WRITE THREADID 1 VARCLASS GLOBAL ADDRESS 0x60607c VARNAME a VARID c:@a FUNCNAME _Z5task1i SYNCS ASYNC id 302 INVNO 1
READ THREADID 1 VARCLASS LOCAL OFFSET 0x4 VARNAME i VARID c:mythread.h@152@F@task1#I#@i FUNCNAME _Z5task1i SYNCS ASYNC id 303 INVNO 1
READ THREADID 1 VARCLASS LOCAL OFFSET 0x4 VARNAME i VARID c:mythread.h@152@F@task1#I#@i FUNCNAME _Z5task1i SYNCS ASYNC id 304 INVNO 1
READ THREADID 1 VARCLASS LOCAL OFFSET 0x14 VARNAME x VARID c:mythread.h@138@F@task1#I#@x FUNCNAME _Z5task1i SYNCS ASYNC id 305 INVNO 1
READ THREADID 1 VARCLASS GLOBAL ADDRESS 0x60607c VARNAME a VARID c:@a FUNCNAME _Z5task1i SYNCS ASYNC id 306 INVNO 1
WRITE THREADID 1 VARCLASS GLOBAL ADDRESS 0x60607c VARNAME a VARID c:@a FUNCNAME _Z5task1i SYNCS ASYNC id 307 INVNO 1
READ THREADID 1 VARCLASS LOCAL OFFSET 0x4 VARNAME i VARID c:mythread.h@152@F@task1#I#@i FUNCNAME _Z5task1i SYNCS ASYNC id 308 INVNO 1
READ THREADID 1 VARCLASS LOCAL OFFSET 0x4 VARNAME i VARID c:mythread.h@152@F@task1#I#@i FUNCNAME _Z5task1i SYNCS ASYNC id 309 INVNO 1
READ THREADID 1 VARCLASS LOCAL OFFSET 0x14 VARNAME x VARID c:mythread.h@138@F@task1#I#@x FUNCNAME _Z5task1i SYNCS ASYNC id 310 INVNO 1
:mythread.h@152@F@task1#I#@iREAD THREADID _Z5task1i SYNCS 1SYNC id  VARCLASS GLOBAL ADDRESS 0x311 INVNO 60607c VARNAME a VARID c:@a FUNCNAME 1 SYNCS ASYNC id 312RINV THREADID 2 VARCLASS LOCAL1
14WRITEAME x VARID c:mythread.h@138@F@task1#I#@x FUNCNAME _Z5task1i SYNCS ASYNC id 1 VARCLASS GLOBAL ADDRESS 0x313 INVNO 60607c VARNAME 1
:@a FUNCNAME _Z5task1i SYNCS ASYNC id READ THREADID 2 VARCLASS GLOBAL314 INVNO 60607c VARNAME a VARID c:@a FUNCNAME 1_Z5task1i SYNCS 
SYNC id 315 THREADID  INVNO 1 VARCLASS LOCAL1
4 VARNAME W VAR THc:mythread.h@152@F@task1#I#@iYNCS ASYNC FUNCNAME _Z5task1i SYNCS ASYNC 2 VARCLASS GLOBAL ADDRESS 0x316 INVNO 60607c VARNAME a VARID 1_Z5task1i SYNCS ASYNC id 
317 INVNO READ THREADID 1
1 VARCLASS LOCAL OFFSET 0xREAD THREADID 4 VARNAME 2 VARCLAc:mythreadLOCAL2@F@task1#I#@i FUNCNAME _Z5task1i SYNCS ASYNC id 4 VARNAME i VARID 318_Z5task1i SYNCS ASYNC id  INVNO 319 INVNO 1
1
READ THREADID READ THREADID 1 VARCLASS LOCAL2 VARCLASS LOCAL OFFSET 0x4 VARNAME i VARID 14 FUNCNAME _Z5task1i VARNAMASYNC id x VARID c:mythread.h@138@F@task1#I#@x320_INVNO 1i SYNCS ASYNC id 1
321 INVNO READ THREADID 1
2 THREADID  VARCLASS LOCAL OFFSET 0x1 VARCLASS 14 VARNAME x VARID c:mythread.h@138@F@task1#I#@x60607c VARNAMASa VARID c:@a FUNCNAME 322task1iid  INVNO 323 INVNO 11
READ THREADID WRITE THREADID 12 VARCLASS GLOBAL ADDRESS 0x VARCLASS GLOBAL ADDRESS 0x60607c60607c VARNAME a VARID c:@a FUNCNAME _Z5task1i SYNCS ASYNC  VARNAME ID a VARID c:@a FUNCNAME  INVNO 1i SYNCS ASYNC id 3251 
1
WRITE THREADID 2READ THREADID AL ADDRESS 0x160607c VARNAME a VARID c:@a FUNCNAME 4Z5task1i SYNCS ASYNC id  VARNAME i VARID c:mythread.h@152@F@task1#I#@i326NCNAMEid  INVNO 327 INVNO 1
1
READ THREADID READ2 VARCLASS LOCAL OFFSET 0x1 VARCLASS LOCAL OFFSET 0x4 VARNAME i4 FUNCNAME  VARNAME  SYNCS ASY VAid  c:mythread.h@152@F@task1#I#@ FUNCNAME _Z5task1i SYNCS ASYNC 328329 INVNO  INVNO 1
1
READ THREADID READ THREADID 1 VARCLASS LOCAL OFFSET 0x2 VARCLASS LOCAL OFFSET 0x144 VARNAME x VARID c:mythread.h@138@F@task1#I#@xi VARID c:mythread.h@152@FASYNC #I#@i FUNCNid  _Z5tasASYNC id 330 INVNO 331 INVNO 1
1READF THREADID READ THREADID 1 VARCLASS GLOBAL ADDRESS 0x260607c VARCLASS LOCAL OFFSET 0x14ARNAME a VARID c:@a FUNCNAME  VARNAME   VARID c:mythid d.h@138@F@task1#I#@x FUNCNAME _Z5task1i SYNCS ASYNC id 332 INVNO 333 INVNO 1
1
WRITE THREADID READ THREADID 12 VARCLASS GLOBAL ADDRESS 0x VARCLASS GLOBAL ADDRESS 0x60607c60607cME a VARID c:@a FUNCNAME _Z5task1i  VARID c:@a Fid _Z5task1i SYNCS ASYNC id 334 INVNO 335 INVNO 1
1
READ THREADID WRITE THREADID 1 VARCLASS LOCAL OFFSET 0x2 VARCLASS GLOBAL ADDRESS 0x4 VARNAME 6 607cD c:mythread.h@152@F@task1# FUNCNAME _Z5task1i SYNCS ASYNC id c:@a FUNCNAME _Z5task1i SYNCS ASYNC id 336 INVNO 1337
 INVNO 1EAD THREADID 
1READ THREADID  VARCLASS LOCAL2 VARCLASS LOCAL OFFSET 0x4 VARNAME i VARID 4 1 VARCLASS LOCAL OFFSET 0x14 VARNAME x VARID c:mythread.h@138@F@task1#I#@x FUNCNAME _Z5task1i SYNCS ASYNC id ET 0x14 VARNAME x VARID c:mythread.h@138@F@task1#I#@x FUNCNAME _Z5task1i SYNCS ASYNC id 339 INVNO 1
READ THREADID 1 VARCLASS GLOBAL ADDRESS 0x60607c VARNAME a VARID c:@a FUNCNAME _Z5task1i SYNCS ASYNC id 340 INVNO 1
WRITE THREADID 1 VARCLASS GLOBAL ADDRESS 0x60607c VARNAME a VARID c:@a FUNCNAME _Z5task1i SYNCS ASYNC id 341 INVNO 1
READ THREADID 1 VARCLASS LOCAL OFFSET 0xVARNAME i VARNAMc:mythreai_Z5taskc:mythread.h@152@F@task1#I#@i SYNCS ASY_Z5id  SYNCS ASYNC id 342 INVNO 343 INVNO 1
1
READ THREADID 2EAD THREADID  VARCLASS LOCAL OFFSET 0x1 VARCLASS LOCAL4 VARNAME i VARID c:mythread.h@152@F@task1#I#@i4_Z5task1i SYNCS ASYNC id  VARID c:mythread.h@152@F@task1#I#@i344_Z5task1iRNAME a SYNCS ASYNC id 1345
 INVNO READ THREADID 1
2 VARCLASS LOCALREADSET 0xD 1  THREADID 14 VARNAME x VARID c:mythread.h@138@F@task1#I#@x FUNCNAME 1 SYNCS ASYNC  VARCLASS YNCLOCAL OFFSET 0x346 INVNO 14 VARNAME 1 VARID c:mythread.h@138@F@tas FUNCNAME _Z5task1i SYNCS 
SYNC id READ THREADID 2347 VARCLASS GLOBAL ADDRESS 0x INVNO 60607c VARNAME a VARID c:@a1 SYNCS 
SYNC id 348 READO  THREADID 11
 VARCLASS GLOBAL ADDRESS 0xWRITE60607c VARNAME a VARCLAc:@G FUNC ADDR_Z5task1i SYNCS ASYNC id RNAME a VARID c:@a FUNCNAME 349 INVNO ASYNC id 350 INVNO 1
1
WRITE THREADID READ THREADID 1 VARCLASS GLOBAL2 VARCLASS LOCAL OFFSET 0x60607c4VARNAME a VARID c:@a FUNCNAME  VARNAME  SYNCS ASi VAid c:mythread.h@152@F@task1#I#@i FUNCNAME _Z5task1i SYNCS ASYNC id 351 INVNO 352 INVNO 1
1
READ THREADID READ THREADID 1 VARCLASS LOCAL2 VARCLASS LOCAL OFFSET 0x4 VARNAME i VARID c:mythreai VARID c:mythread.h@152@F@ta FUNCNAME _Z5task1i SYNCS ASYNC id id 354353  NVNO NINVNO 1
1READ THREADID 2 THREADID  VARCLASS LOCAL OFFSET 0x14 VARNAME x VARID 1 VARCLASS _Z5task1iSET 0 SYNCS ASYNC id 4 VARNAME i VARID cINVNO ead.h@152@F@task1#I#@iA FUNCNAME 1ASYNC id 
356RINV THREADID 31712 VARCLASS TGLOBAL ADDRESS 0x60607cREADNAME a VA TH c:@a FUNCNAME _Z5task1i SYNCS ASYNC id 1 VARCLASS LOCAL OFFSET 0x357 INVNO 14 VARNAME x VARID 1_Z5task1i SYNCS ASYNC 
358WINVN THREADID 21
VARCLASS GLOBAL 60607cREADNAME a VARID c:@a FUNCNAME _Z5task1i SYNCS 1SYNC id  VARCLASS GLOBAL ADDRESS 0x60607c359 VARNAME a VARID c:@a FUNCNAME  INVNO  SYNCS 1SYNC id 
360 INVNO READ THREADID 21 VARCLASS LOCAL OFFSET 0x
4WRITEAME i VARID c:mythread.h@152@F@task1#I#@i FUNCNAME _Z5task1i1 VARCLASS C RGLOBAL ADDRESS 0x361 INVNO 60607c VARNAME a
VARID c:@a FUNCNAME _Z5task1i SYNCS ASYNC id READ362 INVNO 2 VARCLASS LOCAL1
4 VARNAME i VARID c:my THREADID  FUNCNAME _Z5task1i SYNCS ASYNC id 1 VARCLASS LOCAL OFFSET 0x363 INVNO 41 VARNAME 
 VARID c:mythread.h@152@F@task1#I#@i FUNCNAME _Z5task1i THREADASYNC id 2 VARCLASS LOCAL OFFSET 0x364 INVNO 14 VARNAME x VARID 1
FUNCNAME _ASYNC id READ THREADID 365 INVNO 1 VARCLASS 1
4RVARNAME i VARID c:mythread.h@152@F@task1#I#@i FUNCNAME _THREADID SYNCS ASYNC id 2 VARCLASS GLOBAL ADDRESS 0x366 INVNO 60607c1 VARNAME a VARID c:@a FUNCNAME 
Z5task1i SYNCS ASYNC id 367D THREADID  INVNO 11 VARCLASS 
OCAL OFFSEWRITE THREADID 14 VARNAME 2 VARID c:mythread.h@138@F@tas VARCLASS GLOBAL ADDRESS 0x60607c VARNAME a VARID c:@a FUNCNAME 170 SYNCS ASYNC  INVNO 3691 INVNO 
1READm THREADID READ THREADID 1 VARCLASS GLOBAL2 VARCLASS LOCAL OFFSET 0x60607c4VARNAME a VARID c:@a VARNAME  _Z5task1ii VARID ASYNC id  FUNCNAME _Z5task1i370 INVNO 371 INVNO 1
1
WRITE THREADID 1 VARCLASS GLOBAL2 VARCLASS LOCAL OFFSET 0x60607c VARNAME 4 VARID c:@a FUNCNAME _Z5task1i VARNAMASiNC id  VARID c:mythread.h@152@F@task1#I#@i FUNCNAME 372_Z5task1i SYNCS ASYNC  INVNO 3731 INVNO 
1
READ THREADID READ THREADID 1 VARCLASS LOCAL OFFSET 0x2 VARCLASS LOCAL OFFSET 0x4 VARNAME 14 VARNAME d.h@152@F@task1#I#@i FUNCNAME NO 335 INx VARID c:mythread.h@138ASYNC id _Z5task1i SYNCS ASYNC id 374 INVNO 375 INVNO 1
1
READREADEADID NAME THREADID 1 VARCLASS LOCAL OFFSET 0x2 VARCLASS GLOBAL ADDRESS 0x460607c VARNAME  VARNAMEca VARID c:@a FUNCNAME  FUNCNAME SYNCS ASYNC id k1i SYNCS ASYNC id 376377 INVNO  INVNO 11

WRITE THREADID 2 VARCLASS GLOBAL ADDRESS 01 VARCLASS LOCAL OFFSET 0x14 VARNAME x VARID c:mythread.h@138@F@task1#I#@x FUNCNAME _Z5task1i SYNCS ASYNC id 378 INVNO 1
READ THREADID 1 VARCLASS GLOBAL ADDRESS 0x60607c VARNAME a VARID c:@a FUNCNAME _Z5task1i SYNCS ASYNC id 379 INVNO 1
WRITE THREADID 1 VARCLASS GLOBAL ADDRESS 0x60607c VARNAME a VARID c:@a FUNCNAME _Z5task1i SYNCS ASYNC id 380xINVNO 60607c1 VARNAME a VARID c:@a FUNCNAME _Z5task1i SYNCS ASYNC READYNC THREADID 381 INVNO 1 VARCLASS LOCAL1
4 VARNAME i VARID c:my THREADID _Z5task1i SYNCS ASYNC id 2 VARCLASS LOCAL OFFSET 0x382 INVNO 4 VARNAME i VARID c:mythread.h@152@F@task1#I#@i FUNCNAME 1 SYNCS 
SYNC id 383RINV THREADID 1
1 VARCLASS LOCAL OFFSET 0xREAD THREADID 4 VARNAME i VARID c:mythreadLOCAL2@F@task1#I#@i FUNC OFFSET 0x_Z5task1i SYNCS 4SYNC id  VARNAME i VARID c:mythread.h@152@F@task1#I#@i384 INVNO _Z SYNCS ASYNC id 1385
 INVNO 1 THREADID 
1READ THREALOCAL OFFSET 0142VARNAME x VARID c:mythread.h@138@F@task1#I#@x VARCLASS LOCAL OFFSET 0x ASYNC id 14 VARNAME 386ARID c:mythread.h@138@F@task1 FUNCNAME _Z5task1i SYNCS  SYNC id INVNO 3871 INVNO 
1 THREADID 
1 THREADID  VARCLASS 2 VARCLASS GLOBAL ADDRESS 0x60607c VARNAME a VARID c:@a F VARNAME_a VARID c:@a Fid NAME _Z5task1i SYNCS ASYNC id 388 INVNO 389 INVNO 11

WRITE THREADID 1 VARCLASS GLOBAL2 VARCLASS GLOBAL ADDRESS 0x60607c VARNAME a VARNAMc:a VARID c:@a FUASYNC  _Z5tasid AD THR ASYNC id 390 INVNO 391 INVNO 1
1
READ THREADID 1 VARCLASS LOCAL OFFSET 0x2 VARCLASS LOCAL OFFSET 0x4 VARNAME i VARID c:mythreai FUNCNAc:mythread.h@152@F@task1#I#@i_Z5task1i _Z5task1iASYNC id  SYNCS ASYNC 392 INVNO 3931 INVNO 
1READ THREADID 2READ THREADID L OFFSET 0xx4 VARNAME14 VARCLASS LOCAL OFFSET 0x VARNAME i VARID c:mythread.h@152@F@task1#I#@i4FUNCNAid  VARNAME i394 INVNO  SYNCS 1SYNC id 
395RINV THREADID CLA12
 VARCLASS LOCAL OFFSET 0x14 VARNAME x VARID READ THREADID 38@F@task1#I#@x FUNCNAME _Z5task1i SYNCS ASYNC id 1 VARCLASS 396 INVNO 141 VARNAME x VARID 
:mythread.h@138@F@task1#I#@x FUNCNAME _Z5task1i SYNCS ASYNC id READ THREADID 3972 INVNO  VARCLASS GLOBAL1
60607c VARNAME R VA THRc:@a FUNCNAME _Z5task1i SYNCS A VARCLASS i SYNCS AGLOBAL ADDRESS 0x60607c18eRNAME a VARID c:@a FUNCNAME _Z5task1i SYNCS ASYNC id  INVNO 399 INVNO 11

WRITE THREADID WRITE2 VARCLASS GLOBAL1 VARCLASS GLOBAL ADDRESS 0x60607c VARNAME a VARID 60607c VARNAME aASYNC  c:@a Fid NAME _Z5t SYNCS ASYNC id  INVNO 401 INVNO 1
1
READ THREADID 2READ THREADID L OFFSET 0x41 VARNAME i VARID  VARCLASS .h@152@F@task1#I#@i FUNCNAME LOCAL_Z5task1ix:@a FUNCN SYNCS ASYNC 4402 VARNAME i VARID  :mythread.h@152@F@task1#I#@i INVNO ME _Z5tASYNC id 1
403RINVNO  THREADID 21
 OFFSET 0x4 THREADID  VARNAME i VARID c:mythread.h@152@F@task1#I#@i FUNCNAME 1Z5task1i SYNCS ASYNC id  VARCLASS LOCAL OFFSET 0x404 INVNO 4 VARNAME i
VARID c:mythread.h@152@F@task1#I#@i FUNCNAME _Z5task1i SYNCS ASYNC id READ THREADID 4052 INVNO  VARCLASS LOCAL OFFSET 0x114
 VARNAME x VARID c:mythread.h@138@F@task1#I#@x FUNCNAME _Z5task1i THREADASYNC id 1406 VARCLASS LOCAL OFFSET 0x INVNO 14 VARNAME x VARID 1 FUNCNAME _Z5task1i SYNCS ASYNC id READ THREADID 407 INVNO 2 VARCLASS GLOBAL1
60607c VARNAME aREADID c:@a THREADID _Z5task1iARCLASS GL SYNCS ASYNC id 408 INVNO 1 VARCLASS GLOBAL ADDRESS 0x1
60607c VARNAME W VAR THREAD FUNCNAME _Z5task1i SYNCS ASYNC id 2409 VARCLASS  INVNO ADDRE60607c1 VARNAME a
VARID c:@a FUNCNAME _Z5task1i SYNCS ASYNC id WRITE THREADID 4101 INVNO  VARCLASS GLOBAL ADDRESS 0x160607c
 VARNAME a VARID c:@a FUNCNAME _Z5task1i THREADASYNC id 4112 INVNO  VARCLASS LOCAL OFFSET 0x1
4 VARNAME i VARID c:mythread.h@152@F@task1#I#@i FUNCNAME READ THREADID _Z5task1i SYNCS ASYNC id 1 VARCLASS LOCAL OFFSET 0x412 INVNO 41 VARNAME i VARID 
:mythread.h@152@F@task1#I#@i FUNCNAME _Z5task1i SYNCS ASYNC id READ THREADID 413 INVNO 2 VARCLASS LOCAL14 VARNAME i VARID c:mythread.h@152@F@task1#I#@i FUNCNAME _Z5task1i SYNCS ASYNC READEAD THREADID 414 INVNO 1 VARCLASS LOCAL OFFSET 0x1
4 VARNAME i VARID READ THREADID 52@F@task1#I#@i FUNCNAME _Z5task1i SYNCS 2SYNC id  VARCLASS LOCAL OFFSET 0x41514 INVNO  VARNAME x VARID c:mythread.h@138@F@task1#I#@x FUNCNAME _Z5task1i SYNNCS ASYNC id 416 INVNO 1
READ THREADID 2 VARCLASS GLOBAL ADDRESS 0x60607c VARNAME a VARID c:@a FUNCNAME _Z5task1i SYNCS ASYNC id 417 INVNO 1
WRITE THREADID 2 VARCLASS GLOBAL ADDRESS 0x60607c VARNAME a VARID c:@a
FUNCNAME _Z5task1i SYNCS ASYNC id 418RINVNO 1
1 VARCLASS LOCAL OFFSET 0xREAD THREADID 14 VARNAME x VARID 2 VARCLASS _Z5task1i SYNCS ASYNC id 4 VARNAME i VARID 419 FUNCNAME _INVNO 1i SYNCS ASYNC id 420 INVNO 1
1READ THREADID 1EAD THREADID  VARCLASS GLOBAL2 VARCLASS LOCAL OFFSET 0x60607c VARNAME 4 VARID c:@a VARNAME  _Z5task1iiASYNC  c:myth_Z5task1i2@F SYNCS ASYNC id 421422 INVNO INVNO 11

WRITE THREADID READ1 VARCLASS GLOBAL2 VARCLASS LOCAL OFFSET 0x60607c14 VARID  VAR FUNCxAME _Z5task1imythrea SYNCS ASYNC  FUNCNAME NC _Z5task1i SYNCS 423 INVNO 424 INVNO 1
1
READ THREADID READ THREADID 1 VARCLASS LOCAL OFFSET 0x2 VARCLASS GLOBAL ADDRESS 0x4 VARNAME i VARID c:mythread.h@152@F@task1#I#@i60607c_Z5task1i  VARIDAc:@a FUNCNAME _Z5task1i SYNCS ASYNC id 426 INVNO 4251 INVNO 
1
2 VARCLASS GLOBAL ADDRESS 0x60607c VARNAME 1c:@a FUNCNAME  VARCLASS SYNCS ASYNC id 41ab VARNAME  INVNO  c:mythread.h@152@F@task1#I#@i FUNCNAME _Z5task1i SYNCS ASYNC 1
428 INVNO READ THREADID 1
2 VARCLASS LOCALTHREADID ASYNC OFFSET 0x4 VARNAME i1 FUNCNAME LOCALsk1i SYNC OASYNC id 14 VARNAME 429c:mythread.h@138@F@task1#I#@x FUNCNAME _Z5task1iINVNO  SYNCS ASYNC 1430 INVNO READ THREADID 21 VARCLASS LOCAL OFFSET 0x
4 THREADID  VARNAME i VARID c:mythread.h@152@F@task1#I#@i FUNCNAME _Z5task1i1SYNCS ASYNC id  VARCLASS GLOBAL ADDRESS 0x60607c1af VARNAME a VARID c:@a FUNCNAME  INVNO 1i SYNCSASYNC 1
432 INVNO READ THREADID 21 VARCLASS LOCAL
OFFSET 0xN14WRITE THREADIDxC VARID c:mythread.h@138@F@task1#I#@x FUNCNAME _Z5task1i SYNCS 1SYNC id  VARCLASS 433 INVNO 60607c VARNAME a VARID 1:@a FUNCNAME _Z5task1i SYNCS ASYNC id 
434 THREADID  INVNO 2 VARCLASS GLOBAL ADDRESS 0x60607c1 VARNAME a VARID c:@a FUNCNAME _Z5task1iREAD THREADIDid 1435 INVNO 1
4WRITE THREADID D c:mythread.h@152@F@task1#I# FUNCNAME _Z5task1i SYNCS 2ASYNC id  GLOBAL ADDRESS 0x60607c1b4 VARNAME a INVNO _Z5task1i SYNCS ASYNC id 1
437 INVNO READ THREADID 1 VARCLASS LOCAL1
4 VARNAME R VARID EADID  c:@a Fc:mythread.h@152@F@task1#I#@i FUNCNAME 2Z5task1i VARCLAASYLOCid 4438 VARNAME i VARID c:mythread.h@152@F@task1#I#@i FUNCNAME  INVNO 1i SYNCS ASYNC id 1
439 INVNO READ THREADID 1
1 VARCLASS LOCALREAD THREADID 142 VARNAME x VARCLAc:mythreadLOCAL OFFSET 0xI#@x FUNC SYNCS ASYNC id  VARNAME i VARID 440 INVNO ME  SYNCS ASYNC id 441 INVNO 1
1READ
 THREADID 1READ THREADID AL ADDRESS 0x260607c VARCLASS LOCAL OFFSET 0x VARNAME a VARNAME x VARID c:mythread.h@138@F@task1#I#@x FUNCNAME  SYNCS AS SYNid id 442442 INVNO  INVNO 11

WRITEREAD THREADID 2 VARCLASS GLOBAL1 VARCLASS GLOBAL ADDRESS 0x60607c60607c VARNAME a VARID  VARNAME a VARID c:@a FUNCNAME ASYNC id ASYNC id 444443 INVNO D THRE1
1WRITE THREADID 2 VARCLASS READAL THREADID 60607c VARNAME a VARID c:@a1FUNCNAME _Z5task1i SYNCS ASYNC  VARCLAS OFFSET 0x4 VARNAME i VARID 1bd _Z5task1i152@F@ SYNCS ASYNC id 
446RINVNO  THREADID 1
2 VARCLASS LOCALREAD THREADID 4 VARNAME i VARID 1 VARCLASS _Z5task1i SYNCS LOCNC id  OFFSET 0x447 INVNO 41 VARNAME i VARID 
:mythread._Z5task1i SYNCS ASYNC id READ THREADID 448 INVNO 2 VARCLASS LOCAL OFFSET 0x41 VARNAME i
VARID c:mythread.h@152@F@task1#I#@i FUNCNAME _Z5task1i SYNCS ASYNC id READ THREADID 4491INVNO  VARCLASS LOCAL OFFSET 0x141 VARNAME x VARID c:mythread.h@138@F@task1#I#@x FUNCNAME _Z5task1i SYNCS 
SYNC id 450D THREADID  INVNO 2 VARCLASS LOCAL OFFSET 0x141 VARNAME x VARID c:mythread.h@138@F@task1#I#@xREAD SYNCS ASYNC id 1451 VARCLASS GLOBAL INVNO 60607c VARNAME a VARID c:@a1 FUNCNAME _Z5task1i SYNCS ASYNC READ THREADID 2452 VARCLASS  LOBAL ADDRESS 0xtINVNO 60607c1 VARNAME a VARID c:@a FUNCNAME _Z5task1i SYNCS ASYNC id WRITE THREADID 453 INVNO 1 VARCLASS GLOBAL ADDRESS 0x1
606W7cTECS THREADID  VARNAME a VARID c:@aGLOBAL ADDRESS 0x1i SYNCS ASYNC id 60607c VARNAME 454c:@a FUNCNAME  INVNO 1i SYNCS ASYNC id 1455
 INVNO 1EAD THREADID 
1 VARCLASS LOCAL OFFSET 0xREAD THREADID 42 VARNAME i VARID  VARCLASS LOCAL2@F@task1#I#@i FUNCNAME _Z5task1i SYNCS ASYNC id 456 INVNO ADID 2 VARCLASS GLOBAL ADDRESS 0x60607c VARNAME a VARID c:@a FUNCNAME _Z5task1i SYNCS ASYNC id 417 INVNO 1
WRITE THREADID 2 VARCLASS GLOBAL ADDRESS 0x60607c VARNAME a VARID c:@a
FUNCNAME _Z5task1i SYNCS ASYNC id 418RINVNO 1
1 VARCLASS LOCAL OFFSET 0xREAD THREADID 14 VARNAME x VARID 2 VARCLASS _Z5task1i SYNCS ASYNC id 4 VARNAME i VARID 419 FUNCNAME _INVNO 1i SYNCS ASYNC id 420 INVNO 1
1READ THREADID 1EAD THREADID  VARCLASS GLOBAL2 VARCLASS LOCAL OFFSET 0x60607c VARNAME 4 VARID c:@a VARNAME  _Z5task1iiASYNC  c:myth_Z5task1i2@F SYNCS ASYNC id 421422 INVNO INVNO 11

WRITE THREADID READ1 VARCLASS GLOBAL2 VARCLASS LOCAL OFFSET 0x60607c14 VARID  VAR FUNCxAME _Z5task1imythrea SYNCS ASYNC  FUNCNAME NC _Z5task1i SYNCS 423 INVNO 424 INVNO 1
1
READ THREADID READ THREADID 1 VARCLASS LOCAL OFFSET 0x2 VARCLASS GLOBAL ADDRESS 0x4 VARNAME i VARID c:mythread.h@152@F@task1#I#@i60607c_Z5task1i  VARIDAc:@a FUNCNAME _Z5task1i SYNCS ASYNC id 426 INVNO 4251 INVNO 
1
2 VARCLASS GLOBAL ADDRESS 0x60607c VARNAME 1c:@a FUNCNAME  VARCLASS SYNCS ASYNC id 41ab VARNAME  INVNO  c:mythread.h@152@F@task1#I#@i FUNCNAME _Z5task1i SYNCS ASYNC 1
428 INVNO READ THREADID 1
2 VARCLASS LOCALTHREADID ASYNC OFFSET 0x4 VARNAME i1 FUNCNAME LOCALsk1i SYNC OASYNC id 14 VARNAME 429c:mythread.h@138@F@task1#I#@x FUNCNAME _Z5task1iINVNO  SYNCS ASYNC 1430 INVNO READ THREADID 21 VARCLASS LOCAL OFFSET 0x
4 THREADID  VARNAME i VARID c:mythread.h@152@F@task1#I#@i FUNCNAME _Z5task1i1SYNCS ASYNC id  VARCLASS GLOBAL ADDRESS 0x60607c1af VARNAME a VARID c:@a FUNCNAME  INVNO 1i SYNCSASYNC 1
432 INVNO READ THREADID 21 VARCLASS LOCAL
OFFSET 0xN14WRITE THREADIDxC VARID c:mythread.h@138@F@task1#I#@x FUNCNAME _Z5task1i SYNCS 1SYNC id  VARCLASS 433 INVNO 60607c VARNAME a VARID 1:@a FUNCNAME _Z5task1i SYNCS ASYNC id 
434 THREADID  INVNO 2 VARCLASS GLOBAL ADDRESS 0x60607c1 VARNAME a VARID c:@a FUNCNAME _Z5task1iREAD THREADIDid 1435 INVNO 1
4WRITE THREADID D c:mythread.h@152@F@task1#I# FUNCNAME _Z5task1i SYNCS 2ASYNC id  GLOBAL ADDRESS 0x60607c1b4 VARNAME a INVNO _Z5task1i SYNCS ASYNC id 1
437 INVNO READ THREADID 1 VARCLASS LOCAL1
4 VARNAME R VARID EADID  c:@a Fc:mythread.h@152@F@task1#I#@i FUNCNAME 2Z5task1i VARCLAASYLOCid 4438 VARNAME i VARID c:mythread.h@152@F@task1#I#@i FUNCNAME  INVNO 1i SYNCS ASYNC id 1
439 INVNO READ THREADID 1
1 VARCLASS LOCALREAD THREADID 142 VARNAME x VARCLAc:mythreadLOCAL OFFSET 0xI#@x FUNC SYNCS ASYNC id  VARNAME i VARID 440 INVNO ME  SYNCS ASYNC id 441 INVNO 1
1READ
 THREADID 1READ THREADID AL ADDRESS 0x260607c VARCLASS LOCAL OFFSET 0x VARNAME a VARNAME x VARID c:mythread.h@138@F@task1#I#@x FUNCNAME  SYNCS AS SYNid id 442442 INVNO  INVNO 11

WRITEREAD THREADID 2 VARCLASS GLOBAL1 VARCLASS GLOBAL ADDRESS 0x60607c60607c VARNAME a VARID  VARNAME a VARID c:@a FUNCNAME ASYNC id ASYNC id 444443 INVNO D THRE1
1WRITE THREADID 2 VARCLASS READAL THREADID 60607c VARNAME a VARID c:@a1FUNCNAME _Z5task1i SYNCS ASYNC  VARCLAS OFFSET 0x4 VARNAME i VARID 1bd _Z5task1i152@F@ SYNCS ASYNC id 
446RINVNO  THREADID 1
2 VARCLASS LOCALREAD THREADID 4 VARNAME i VARID 1 VARCLASS _Z5task1i SYNCS LOCNC id  OFFSET 0x447 INVNO 41 VARNAME i VARID 
:mythread._Z5task1i SYNCS ASYNC id READ THREADID 448 INVNO 2 VARCLASS LOCAL OFFSET 0x41 VARNAME i
VARID c:mythread.h@152@F@task1#I#@i FUNCNAME _Z5task1i SYNCS ASYNC id READ THREADID 4491INVNO  VARCLASS LOCAL OFFSET 0x141 VARNAME x VARID c:mythread.h@138@F@task1#I#@x FUNCNAME _Z5task1i SYNCS 
SYNC id 450D THREADID  INVNO 2 VARCLASS LOCAL OFFSET 0x141 VARNAME x VARID c:mythread.h@138@F@task1#I#@xREAD SYNCS ASYNC id 1451 VARCLASS GLOBAL INVNO 60607c VARNAME a VARID c:@a1 FUNCNAME _Z5task1i SYNCS ASYNC READ THREADID 2452 VARCLASS  LOBAL ADDRESS 0xtINVNO 60607c1 VARNAME a VARID c:@a FUNCNAME _Z5task1i SYNCS ASYNC id WRITE THREADID 453 INVNO 1 VARCLASS GLOBAL ADDRESS 0x1
606W7cTECS THREADID  VARNAME a VARID c:@aGLOBAL ADDRESS 0x1i SYNCS ASYNC id 60607c VARNAME 454c:@a FUNCNAME  INVNO 1i SYNCS ASYNC id 1455
 INVNO 1EAD THREADID 
1 VARCLASS LOCAL OFFSET 0xREAD THREADID 42 VARNAME i VARID  VARCLASS LOCAL2@F@task1#I#@i FUNCNAME _      INVNO 1
WRITE THREADID 2 VARCLASS GLOBAL ADDRESS 0x60607c VARNAME a VARID c:@a FUNCNAME _Z5task1i SYNCS ASYNC Fd ask1#I#@i FUNCNAME _Z5task1i SYNCS ASYNC id 457 INVNO 1
READ THREADID 1 VARCLASS LOCAL OFFSET 0x14 VARNAME x VARID c:mythread.h@138@F@task1#I#@x FUNCNAME _Z5task1i SYNCS ASYNC id 458 INVNO 1
READ THREADID 1 VARCLASS GLOBAL ADDRESS 0x60607c VARNAME O VARID c:@a FUNCNAME _Z5task1i SYNCS ASYNC id 4 VARNAME i VARID 459ythread.h@152@F@task1#I#@i FUNCNAME  INVNO _Z5task1i SYNCS ASYNC 1
460WINVNO 11 VARCLASS GLOBAL ADDRESS 0x
60607cREADNAME a VA THRc:@a FUNCNAME 2 SYNCS SS LOCAL OASYNC id 4 VARNAME 461 INVNO ead.h@152@F@task1#I#@i FUNCNAME _Z5tasASYNC id 462 INVNO 1
1
READ THREADID READ THREADID 12VARCLASS LOCAL VARCLASS LOCAL OFFSET 0x4 VARNAME i VARID  VARNAME d.h@152@F@task1#I#@i FUNCNAMEx VARID _Z5task1id.h@138@F@task1#I#@x FUNCNAME SYNCS AS SYNid  VARASYNC id 464463 INVNO 1
1
READ THREADID 2 THREADID  VARCLASS GLOBAL ADDRESS 0x1 VARCLASS LOCAL OFFSET 0x60607c VARNAME a VARID 4 FUNCNAME  VARNAME   VARID c:mythid  FUNCNAME 465 ask1i SYNCS AINVNOid 1466
 INVNO WRITE THREADID 12 VARCLASS @GLOBAL ADDRESS 0x60607c VAR THREADID a VARID c:@a FUNCNAME _Z5task1i SYNCS 1 VARCLASS LOCAL OFFSET 0x467 INVNO 14 VARNAME x1VARID c:mythread.h@138@F@task1#I#@x
_Z5task1i SYNCS ASYNC id READ THREADID 468 INVNO 2 VARCLASS LOCAL OFFSET 0x1
4READ THREADID  VARNAME i VARID c:mythread.h@152@F@task1#I#@i1 VARCLASS SYNCS ASYGLOid  ADDRESS 0x60607c469 VARNAME a VARID c:@a FUNCNAME _Z5task1i SYNCS INVNO id 470 1
1
READ THREADID WRITE THREADID 2 VARCLASS LOCAL OFFSET 0x1 VARCLASS GLOBAL4 VARNAME i60607c FUNCNAME _Z5task1i SYNCS ASYNC id  VARNAME a VARID c:@a471NCNAME _Z5task1i INVNO ASYNC id 1472
 INVNO 1
2 VARCLASS LOCAL OFFSET 0x14AD THREADID  VARNAME 1 VARCLASS .h@138@F@task1#I#@x FUNCNAME _Z5task1i SYNCS ASYNC LOCAL 2  OFFSET 0x41d9 VARNAME i VARID c:mythread.h@152@F@task1#I#@i FUNCNAME  INVNO 1i SYNCS ASYNC id 1474
 INVNO READ THREADID 2 VARCLASS GLOBAL ADDRESS 0x1
60607c VARNAME a VARID c:@a FUNCNAME READ THREADID _Z5task1i SYNCS ASYNC id 1 VARCLASS LOCAL OFFSET 0x475 INVNO 4 VARNAME 1c:mythread.h@152@F@task1#I#@i
FUNCNAME _Z5task1i SYNCS ASYNC id WRITE THREADID 4762 INVNO  VARCLASS GLOBAL ADDRESS 0x160607c
 VARNAME a VARID c:@a FUNCNAME _Z5Dask1i SYNCS ASYNC id 1477 INVNO SS LOCAL OFFSET 0x14 VARNAME 1
VARID c:mythread.h@138@F@task1#I#@x FUNCNAME _Z5task1i SYNCS ASYNC id READ THREADID 478 INVNO 2 VARCLASS LOCAL OFFSET 0x41 VARNAME i VARID 
:mythread.h@152@F@task1#I#@i FUNCNAME _Z5task1i SYNCS ASYNC id READ THREADID 1 VARCLASS GLOBAL ADDRESS 0x479 INVNO 60607c VARNAME 1c:@a FUNCNAME _Z5task1i# SYNCS ASYNC id READ THREADID 480 INVNO 2 VARCLASS LOCAL OFFSET 0x4 VARNAME 1 VARID c:mythread.h@152@F@task1#I#@i FUNCNAME _Z5task1i SYNCS 
SYNC id 481WINVN T11 VARCLASS GLOBAL ADDRESS 0x
60607c VARNAME a VARID READ FUN THREA_Z5task1i SYNCS ASYNC id 2 VARCLASS LOCAL482 INVNO 14 VARNAME x VARID 1:mythread.h@138@F@task1#I#@x FUNCNAME _Z5task1i SYNCS ASYNC id 
483 INVNO READ THREADID 11
 VARCLASS LOCALREAD THREADID 24 VARCLASS GLOBAL ADDRESS 0x VARNAME i VARID c:mythread.h@152@F@task1#I#@i6316156_Z5task1i SYNCS  c:@a FUNCNAME _Z5tasid  SYNCS ASYNC id 484 INVNO 4851 INVNO 
1READ
1 VARCLASS VNO 2 VARCLOCAL OFFSET 0x2 VARCLASS GLOBAL460607c VARNAME i VARID  VARNAME d.h@152@F@task1#I#@i FUNCNAMEa SYNCS c:@aASYNC AME _Z5task1i SYNCS ASYNC id L O486487 INVNO  INVNO 11

READ THREADID READ THREADID 1 VARCLASS LOCAL2 VARCLASS LOCAL OFFSET 0x144 VARNAME   VARID c:mythread.h@138@F@task1#I#@xc:mythread.h@152@F@task1#I#@i FUNCNAME _Z5task1iASYNC iASYNC id 488488 INVNO  INVNO 11
NREAD THREADID READ THREADID 21 VARCLASS LOCAL VARCLASS CS ASYNC RGLOBAL ADDRESS 0x60607c4 VARNAME a VARID c:@a FUNCNAc:m_Z5task1i SYNCS ASYNC id i FUNCNAME _Z5task1i SYNCS ASYNC id 490489 INVNO  INVNO 11

READ THREADID 12 VARCLASS  ADDREOFFSET 0x60607c14 VARNAME a VARNAMc:@a FUNCx VAR_Z5c: SYNCS ASYNC id @tasASYNC id 491 INVNO 491 INVNO 11

READ THREADID 2 VARCLASS GLOBAL ADDRESS 0x160607c VARCLASS LOCAL VARNAME a VARID  OFF FUNCNAME _Z5task1i SYNCS ASYNC 4 VARNAME i492RID c:mythread.h@15 VARCLASS LOCAL OFFSET 0x4 VARNAME i VARID c:mythread.h@152@F@task1#I#@i FUNCNAME _Z5task1i SYNCS ASYNC id 530 INVNO 1
READ THREADID READID 2 VARCLASS LOCAL OFFSET 0x4 VARNAME i VARID c:mythread.h@152@F@task1#I#@i FUNCNAME _Z5task1i SYNCS ASYNC id 494 INVNO 1
READ THREADID 2 VARCLASS LOCAL OFFSET 0x4 VARNAME i VARID c:mythread.h@152@F@task1#I#@i FUNCNAME _Z5task1i SYNCS ASYNC id 495 INVNO 1
READ THREADID 2 VARCLASS LOCAL OFFSET 0x14 VARNAME x VARID c:mythread.h@138@F@task1#I#@x FUNCNAME _Z5task1i SYNCS ASYNC id 496 INVNO 1
READ THREADID 2@F@task1#I#@iT VARCLASS GLOBAL ADDRESS 0x_Z5task1i SYNCS ASYNCcAME 4id  VARNAME a VARID c:@a FUNCNAME 497 id INVNO 498 INVNO 11

WRITE THREADID 2 VARCLASS GLOBAL ADDRESS 0xREAD60607c VARNAME a VARID c:@a1_Z5task1i SYNCS ASYNC id  VARCLASS 499 INVNO 4 VARNAME 1 VARID 
:mythread.h@152@F@task1#I#@i FUNCNAME _Z5task1i SYNCS ASYNC id READ THREADID 500 INVNO 2 VARCLASS LOCAL1
4RVAR THREi VARID c:mythread.h@152@F@task1#I#@i FUNCNAME _Z5task1i1SYNCS ASYNC id  VARCLASS LOCAL OFFSET 0x501 INVNO 14 VARNAME x VARID c:mythread.h@138@F@task1#I#@x FUNCNAME _Z5task1i1SYNCS ASYNC id 
502 INVNO READ THREADID 12
 VARCLASS LOCAL OFFSET 0xREAD41 VARNAME i VARID c:mythread.h@152@F@task1#I#@i FUNCNAME  VARCLASS GLOBALASYNC id 5036316156 VARNAME a VARID 1c:@a FUNCNAME _Z5task1i SYNCS ASYNC id READ THREADID 504 INVNO 2 VARCLASS LOCAL OFFSET 0x114
 VARNAME x VARID c:mythread.h@138@F@task1#I#@xWRITE FUNCNAME DRESS 0x60_Z5task1i SYNCS ASYNC id 1505 VARCLASS GLOBAL ADDRESS 0x INVNO 1
60607c VARNAME a VARID READ FUN THREA_Z5task1i SYNCS ASYNC 2 VARCLASS GLOBAL ADDRESS 0x506 INVNO 60607c VARNAME a VARID c:@a FUNCNAME 1 SYNCS ASYNC id 
507 INVNO READ THREADID 1
1 VARCLASS LOCAL OFFSET 0xWRITE THREADID 4 VARNAME i2 FUNCLASS GLOBAL_Z5task1i SYNCS 60607cid  VARNAME a VARID c:@a FUNCNAME _Z5task1i SYNCS ASYNC id 508 INVNO 509 INVNO 11

READ THREADID READ THREADID 2 VARCLASS LOCAL OFFSET 0x1 VARCLASS LOCAL OFFSET 0x4 VARNAME i VARID 4_Z5task1i SYNCS ASYNC id  VARNAME i VARID c:mythread.h@152@F@task1#I#@i510_Z5task1i SYNCS  INVNOid 1
511 INVNO READ THREADID 2 VARCLASS LOCAL OFFSET 0x1
4 VARNAME i VARID READ THREADID _Z5task1i SYNCS ASYNC 1 VARCLASS LOCAL OFFSET 0x512 INVNO 14 VARNAME x VARID 1_Z5task1i SYNCS ASYNC id 
513 INVNO READ THREADID 2 VARCLASS LOCAL OFFSET 0x1
14 VARNAME xREADID c:my THREADID 38@F@task1#I#@x FUNCNAME x FUNCNAME_Z5task1i SYNCS ASYNC 1 VARCLASS GLOBAL ADDRESS 0x51460607c INVNO  VARNAME a VARID c:@a1FUNCNAME _Z5task1i SYNCS ASYNC id 
515READINVNO DID 2 VARCLASS GLOBAL ADDRESS 0x1
60607c VARNAME a VARID c:@a FUNCNAME WRITE THREADID  ASYNCid 5161 INVNO  VARCLASS GLOBAL ADDRESS 0x60607c1 VARNAME a VARID c:@a FUNCNAME WRITEsk1i SYNCS ASYNC  TH2 VARCLASS GLOBAL517 INVNO 60607c VARNAME a VARID c:@a1_Z5task1i SYNCS ASYNC id 
518 INVNO 1 THREADID 1 VARCLASS LOCAL OFFSET 0xREAD THREADID 4 VARNAME i VARCLAc:mLOCAL OFFSET 0x@task1#I#@i FUNCNAME ARNAME x V_Z5task1i SYNCS ASYNC  VARNAME #@xi VARID c:mythread.h@152@F@task1#I#@i FUNCNAME _Z5task1i519id  INVNO 520 INVNO 1
1
READ THREADID READ THREADID 1 VARCLASS LOCAL OFFSET 0x2 VARCLASS LOCAL OFFSET 0x4 VARNAME 4 VARID  VARNAME i VARID c:mythread.h@152@FASYNC id  FUNCNAME _Z5task1i SYNCS ASYNC id  INVNO 522 INVNO 1
1
READ THREADID READ THREADID 21 VARCLASS LOCAL OFFSET 0x VARCLASS LOCAL OFFSET 0x14 VARNAME x VARID c:mythread.h@138@F@task1#I#@x14 SYNCS ASYNC  VAx VARID c:mythread.h@138@F@task1#I#@x FUNCNAME 523_Z5task1i INVNO ASYNC id 524 INVNO 1
1
2 VARCLASS GLOBAL ADDRESS 0xREAD60607c VARNAME a VARID c:@a1FUNCNAME _Z5task1i SYNCS ASYNC id  VARCLASS GLOBAL ADDRESS 0x525 INVNO 60607c VARNAME 1
VARID c:@a FUNCNAME _Z5task1i SYNCS ASYNC id WRITE THREADID 526 INVNO 21 VARCLASS GLOBAL ADDRESS 0x
60607c VARNAME a VARID c:@a FUNCNAME _Z5ta THREADID  ASYNC id 1527 VARCLASS GLOBAL ADDRESS 0x INVNO 60607c VARNAME a
VARID c:@a FUNCNAME _Z5task1i SYNCS ASYNC id READ THREADID 2 VARCLASS 528 OFFSET 0xAINVNO 4 VARNAME 1 VARID c:mythread.h@152@F@task1#I#@i FUNCNAME _Z5task1i SYNCS ASYNC 
d S529 INVNO READ THREADID 1
1 VARCLASS LOCAL OFFSET 0xREAD THREADID 42VARNAME i VARID c:mythrea1VARCLASS LOCAL OFFSET 0x4 VARNAME i VARID c:mythread.h@152@F@task1#I#@i FUNCNAME _Z5task1i SYNCS ASYNC id 530 INVNO 1
READ THREADID 2 VARCLASS LOCAL OFFSET 0x14 VARNAME x VARID c:mythread.h@138@F@task1#I#@x FUNCNAME _Z5task1i SYNCS ASYNC id 531 INVNO 1
READ THREADID 2 VARCLASS GLOBAL ADDRESS 0x60607c VARNAME a VARID c:@a FUNCNAME _Z5task1i SYNCS ASYNC id 532 INVNO 1
WRITE THREADID 2 VARCLASS GLOBAL ADDRESS 0x60607c VARNAME a VARID c:@a FUNCNAME _Z5task1i SYNCS ASYNC id 533 INVNO 1
READ THREADID 2.h@152@F@task1#I#@iI VARCLASS LOCAL_Z5task1ixtask1#I#@ SYNCS ASYNC CALL THREADID 0 VARNAME i VARID 534 INVNO ME _Z5task1i SYNCS ASYNC id 0 CALLERNAME 1535_ZNSt6thread4joinEv@pltT INVNO READ THREADID 1 VARCLASS LOCAL OFFSET 0x536 1
4ARGS NONEi VARID c:my THREADID 52@F@task1#I#@iSS 4 FUNCNAME 2_Z5task1iLOCAL OFFSET 0xASYNC id 537c:@N@std@S@thread@F@join# t1 . join ( )	4  VARNAME i] INVNO 1FUNCNAMASYNC id 
READ THREADID 1
1538 VARCLASS  INVNO 114
 VARNAME x VARID c:mythread.h@138@F@task1#I#@x FUNCNAME READask1i SYN THASYNC id 2539 VARCLASS LOCAL OFFSET 0x INVNO 141 VARNAME x VARID c:mythread.h@138@F@task1#I#@x FUNCNAME 
Z5task1i SYNCS ASYNC id READ THREADID 5401 INVNO  VARCLASS GLOBAL ADDRESS 0x160607c
 VARNAME READ VARID c:@a FUNCNAME _Z5task1i2 VARCLid  GLOBAL ADD60607c VARNAME a21d INVNO _Z5task1i SYNCS ASYNC id 1
542 INVNO WRITE THREADID 1
1 VARCLASS GLOBAL ADDRESS 0xWRITE60607c VARNAME a VARID c:@a2 VARCLASS SYNCS NGLOBAL ADDRESS 0xZ5t60607c21f VARNAME a VARID c:@a FUNCNAME  INVNO 1i SYNCS ASYNC id 1
544 INVNO 1
1READCLASS LOCAL THREADID 1i SYNCS A4 VARNAME i VARID 2_Z5task1i VARCLAASYLOCid OFFSET 0x4221 VARNAME i VARID  INVNO _Z5task1i SYNCS ASYNC id 5461 INVNO 
1READ THREADID 1 THREADID  VARCLASS LOCAL OFFSET 0x2 VARCLASS LOCAL OFFSET 0x4 VARNAME i VARID 4 FUNCNAME _Z5task1ii VARID c:mythid d.h@152@F@task1#I#@i id 50 FUNCNAME _Z5task1i SYNCS ASYNC id  INVNO 5481 INVNO 
1READS THREADID READ THREADID 1 VARCLASS LOCAL OFFSET 0x2 VARCLASS LOCAL14 VARNAME x14 VARNAME   VARID c:mythreaASYNC _Z5task1i SYNCS ASYNC id 549 INVNO 550 INVNO 1
READ THREADID 1
1 VARCLASS GLOBAL ADDRESS 0xREAD THREADID 60607c VARNAME a2VARID c:@a VARCLASS GLOBAL ADDRESS 0x_Z5task1i SYNCS 60607c VARNAid a VARID c:@a FUNCNAME 551_Z5task1i SYNCS INVNC id 5521 INVNO 
1
1WRITEGLOBAL ADDRESS 0x60607c2 VARNAME a VARID c:@a FUNCNAME _Z5taskSS GLOBAL SYNCS S 0xCNAME xASYNC id 60607c VARNAME a VARID c:@a553_Z5task1i SYNCS  SYNC id 5541 INVNO 
1
READ THREADID 1READ THREADID  OFFSET 0x24 VARCLASS LOCAL OFFSET 0x VARNAME i VARID c:mythread.h@152@F@task1#I#@i4 FUNCNAMEi VARID c:mythread.h@152ASYNC _Z5task1i SYNCS ASYNC id 555 INVNO 556 INVNO 11

READ THR THREADID 12 VARCLASS LOCAL OFFSET 0x VARCLASS LOCAL OFFSET 0x44 VARNAME i VARID c:mythread.h@152@F@task1#I#@i FUNCNAME _Z5task1i SYNCS ASYNC id  FUNCNAME 557task1i SYNCS ASYNC id  INVNO 558 INVNO 1
1READ THREADID 2READ THREADID L OFFSET 0x114 VARCLASS LOCAL VARNAME x VARID c:mythread.h@138@F@task1#I#@x FUNCNAME 14 VARNAid x VARID c:m INVNO .h@138@F@task1#I#@xVNO FUNCNAME _Z5task1i SYNCS ASYNC 1
560RINV THREADID 2 VARCLASS GLOBAL1
60607cREAD THREA VARID c:@a FUNCNAME _Z5task1i SYNCS ASYNC id 1561 VARCLASS  LOBAL INVNO 160607c
 VARNAME a VARID c:@aWRITE THRE_Z5task1i SYNCS ASYNC 2 VARCLASS GLOBAL ADDRESS 0x562 INVNO 60607c VARNAME 1
VARID c:@a FUNCNAME _Z5task1i SYNCS ASYNC id WRITE THREADID 5631 INVNO  VARCLASS GLOBAL ADDRESS 0x1
60607c VARNAME a VARID c:@aREAD THREADID _Z5task1i SYNCS 2 VARCLASS LOCAL OFFSET 0x564 INVNO 4 VARNAME i VARID c:mythread.h@152@F@task1#I#@i FUNCNAME 1 SYNCS ASYNC id 
565 INVNO READ1
1READ THREADID L OFFSET 0x2 VARCLASS LOCAL OFFSET 0x4 VARNAME i VARID 4 FUNCNAME  VARNAME i VARIDASYNC id c:mythread.h@152@F@task1#I#@i FUNCNAME _Z5task1i566ASYNC id  INVNO 567 INVNO 1
1
READ THREADID READ1 VARCLASS LOCAL OFFSET 0x2 VARCLASS LOCAL OFFSET 0x14 VARNAME x VARID c:mythread.h@138@F@task1#I#@x FUNCNAME _Z5task1i SYNCS ASYNC id 568 INVNO 4 VARNAME i VARID 1_Z5task1i SYNCS ASYNC id READ THREADID 569 INVNO 2 VARCLASS GLOBAL ADDRESS 0x60607c VARNAME a VARID 1_Z5task1i SYNCS ASYNC id 
570 INVNO READ THREADID 1WRITE THREADID 2 VARCLASS GLOBAL ADDRESS 0x60607c VARNAME a VARID c:@a FUNCNAME _Z5task1i SYNCS ASYNC id 611 INVNO 1NO 1
READ THREADID 1 VARCLASS GLOBAL ADDRESS 0x60607c VARNAME a VARID c:@a FUNCNAME _Z5task1i SYNCS ASYNC id 
572 THREADID  2 VARCLASS GLOBAL ADDRESS 0x1
60607c VARNAME a VARID c:@aWRITENAME _Z5task1i SYNC THREADIid 1573 VARCLASS GLOBAL INVNO 60607c1 VARNAME a VARID c:@a FUNCNAME _Z5task1i SYNCS ASYNC id READ THREADID 2 VARCLASS LOCAL OFFSET 0x574 INVNO 4 VARNAME i VARID 1
FUNCNAME _Z5task1i SYNCS ASYNC id 575RINV THREADID 11 VARCLASS LOCAL OFFSET 0x
4 VARNAME i VARID c:mythread.h@152@F@task1#I#@iREAD THREADID ask1i SASYNC id 2 VARCLASS LOCAL OFFSET 0x576 INVNO 4 VARNAME i VARID c:mythread.h@152@F@task1#I#@i1 SYNCS ASYNC id 577 READ THREADID 11
 VARCLASS LOCAL OFFSET 0x4 VARNAME i VARID 2:mythread VARCLAASYLOCid OFFSET 0xA14242 VARNAME x VARID c:mythread.h@138@F@task1#I#@x FUNCNAME  INVNO 1i SYNCS ASYNC id 5791 INVNO 
1
READ THREADID ARID c:myt12 VARCLASS LOCAL VARCLASS GLOBAL ADDRESS 0x14 VARNAME 6 VARI VARNAME c:mythrec:@a FUNCNAME _Z5task1i SYNCS ASYNC id ASYNC id 580581 INVNO  INVNO 1
1
WRITE THREADID READ THREADID 2 VARCLASS GLOBAL ADDRESS 0x160607c VARCLASS  VARNA ADa VARID c:@a60607c VARNAMASa VAid  c:@a FUNCNAME _Z5task1i SYNCS ASYNC id  INVNO 1583
 INVNO 1
2WRITELASS LOCAL OFFSET 0x THREADID 4 VARNAME i VARID 1 VARCLASS _Z5task1i SYNCS ASYNC GLOBAL ADDRESS 0x24860607c INVNO  VARNAME a VARID c:@a
FUNCNAME _Z5task1ASYNC id READ THREADID 585 INVNO 21
OFFSET 0xO4 VARNAME i VARID c:mythread.h@152@F@task1#I#@i FUNCNAME READ THRE SYNCS ASYNC id 5861 INVNO  VARCLASS LOCAL OFFSET 0x41 VARNAME i
VARID c:mythread.h@152@F@task FUNCNAME _Z5task1i SYNCS ASYNC id READ THREADID 5872 INVNO  VARCLASS LOCAL OFFSET 0x114
 VARNAME x VARID c:mythread.h@138@F@task1#I#@x FUNCNAME _Z5task1i THREADASYNC id 588 INVNO 1 VARCLASS LOCAL OFFSET 0x4 VARNAME 1 VARID c:mythread.h@152@F@task1#I#@i FUNCNAME _Z5task1i SYNCS 
SYNC id READ THREADID 589 INVNO 2 VARCLASS GLOBAL ADDRESS 0x1
60607c VARNAME a VARID c:@a FUNCNAME READask1i SYN THASYNC id 1590 VARCLASS LOCAL OFFSET 0x INVNO 14 VARNAME x VARID 
:mythread._Z5task1i SYNCS ASYNC id WRITE THREADID 591 INVNO 2 VARCLASS GLOBAL ADDRESS 0x160607c VARNAME a VARID c:@a FUNCNAME _Z5task1i THREADASYNC id 1 VARCLASS GLOBAL592 INVNO 60607c VARNAME a VARID c:@a FUNCNAME _Z5task1i SYNCS ASYNC id READ THREADID 593 INVNO 2 VARCLASS LOCAL OFFSET 0x14
WRITEAME i VAR THREADID ead.h@152@F@task1#I FUNCNAME _Z5task1i1id  VARCLASS GLOBAL ADDRESS 0x594 INVNO 60607c VARNAME a
VARID c:@a FUNCNAME _Z5task1i SYNCS ASYNC id READ THREADID 595 2 VARCLASS LOCAL OFFSET 0x1
4 VARNAME i VARID c:mythread.h@152@F@task1#I#@i FUNCNAME _Z5task1i SYNCS READC id  THREADID 596 INVNO 1 VARCLASS LOCAL OFFSET 0x1
4 VARNAME R VAR THREADID ead.h@152@F@task1#I FUNCNAME _Z5task1i SYNCS A VARCid S LOCAL OFFSET 0x25514 INVNO  VARNAME x VARID 1
mythread SYNCS ASYNC id 598 INVNO 1 VARCLASS LOCAL1
4 VARNAME ADIDi VARID 2:mythread.h@152@F@task1#I#@i FUNCNAME _Z5task1i VARCLAASYGLOid 599 INVNO 63161561 VARNAME 
 VARID c:@a FUNCNAME _Z5task1i SYNCS ASYNC id READ THREADID 600 INVNO 1 VARCLASS LOCAL1
14 VARNAME x VARID c:myt THREADID 8@F@task1#I#@x FUNCNAME _Z5task1i SYNCS 2SYNC id  VARCLASS GLOBAL ADDRESS 0x60607c VARNAME a VARID c:@a FUNCNAME 601_Z5task1iINVNO  ASYNC id 6021 READ THREADID 11 VARCLASS EGLOBAL ADDRESS 0xREAD THREADID 60607c VARNAME a2VARID c:@a FUNCNAME _Z5task1i SYNCS  VARCLid  i SY OFFSET 0x25b4 INVNO E i VARID c:mythread.h@152@F@task1#I#@i FUNCNAME 1ASYNC id 
604 WRITE THREADID 1
1 VARCLASS GLOBALREADRESS 0x
1RE60607c VARNAME 2 VARID c:@a VARCLASS LOCAL OFF SYNCS 4 VARNAME 605c:mythread.h@152@F@task1#I#@i FUNCNAME _Z5task1i SYNCS ASYNC  INVNO 606 INVNO 1
1
READREAD THREADID 2 VARCLASS LOCAL1 VARCLASS LOCAL OFFSET 0x14 VARNAME x VARID 4 VARNAME  _Z5task1ii VARIidc:mythread.h@152@F@task1# FUNCNAME _Z5task1i SYNCS 607NC id  INVNO 1608
 INVNO READ THREADID 1
2 VARCLASS GLOBAL ADDRESS 0xREAD60607c VARNAME 1 VARID c:@a FUNCNAME _Z5task1i SYNCS  VARCLid  LOCAL OFFSET 0x4 VARNAME 2 V INVNO mythread.h_Z5task1i SYNCS 1SYNC id 
6WRITE THREADID 2 VARCLASS GLOBAL ADDRESS 0x60607c VARNAME a VARID c:@a FUNCNAME _Z5task1i SYNCS ASYNC id 611 INVNO 1
READ THREADID 2 VARCLASS LOCAL OFFSET 0x4 VARNAME i VARID c:mythread.h@152@F@task1#I#@i FUNCNAME _Z5task1i SYNCS ASYNC id 612 INVNO 1
READ THREADID 2 VARCLASS LOCAL OFFSET 0x4 VARNAME i VARID c:mythread.h@152@F@task1#I#@i FUNCNAME _Z5task1i SYNCS ASYNC id 613 INVNO 1
READ THREADID 2 VARCLASS LOCAL OFFSET 0x14 VARNAME x VARID c:mythread.h@138@F@task1#I#@x FUNCNAME _Z5task1i SYNCS ASYNC id 614 INVNO 1
READ THREADID 10 INVNO 2 VARCLASS GLOBAL ADDRESS 0x160607c
 VARNAME a VARID c:@a FUNCNAME _Z5task1i SYNCS ASYNC id READ THREADID 615 INVNO 11
 VARCLASS WRITE THREADID 142 VARNAME x VARID  VARCLASS .h@138@F@task1#I#@x FUNCNAME GLOBAL_Z5task1i0xID 11
 VA SYNCS 60607cid  VARNAME a VARID c:@a616_INVNO 1i SYNCS ASYNC id 1617
 INVNO 1EAD THREADID 
1READCLASS GLOB THREADID  0x60607c2c:@a VARCLASS _Z5task1i LOCAL OASYNC id 4 VARNAME i VARID c:mythread.h@152@F@task1#I#@i618_Z5task1i SYNCS ASYNC id  INVNO 619 INVNO 1
1
READ THREADID 2WRITELASS LOCAL OFFSET 0x THREADID 4 VARNAME i VARID c:mythread.h@152@F@task1#I#@i1 VARCLASS SYNCS ASYGLOid  ADDRESS 0x60607c26c VARNAME a VARID  INVNO ASYNC id 1
621 INVNO READ THREADID 21 VARCLASS LOCAL
14 VARNAME x VARID c:mythread.h@138@F@task1#I#@x FUNCNAME _Z5task1i SYNCS ASYNC READARN THREADID 622 INVNO 11 VARCLASS LOCAL OFFSET 0xREAD THREADID 4 VARNAME i2 FUNCNAME GLOBAL ADDRESASYNC id 60607c623 VARNAME a VARID c:@a FUNCNAME  Z5task1i INVNO ASYNC id 624 1
1
READ THREADID WRITE THREADID 1 VARCLASS LOCAL2 VARCLASS GLOBAL ADDRESS 0x4 VARNAME 6 VARI Vc:mythra VARID c:@a FUNCNAME YNCS ASYNC id _Z5task1i SYNCS ASYNC id 625 INVNO 626 INVNO 11

READ THREADID READ2 VARCLASS LOCAL1 VARCLASS LOCAL OFFSET 0x4 VARNAME i VARID 14 FUNCNAME _Z5task1i VARNAMASYNC id x VARID 627_Z5task1i SYNCS ASYNC id  INVNO 628 INVNO 1
1
READ THREADID READ2 VARCLASS LOCAL1 VARCLASS GLOBAL ADDRESS 0x4 VARNAME 60607c VARNAME a VARID c:@ask1#I#@i FUNCNAME _Z5task1i SYNCS ASYNC  FUNCNAME _Z5task1i SYNCS ASY INid 630 1
1 THREADID 
2WRITE THREADID  OFFSET 0x114 VARNAME x VARID c:mythread.h@138@F@task1#I#@x FUNCNAME _Z5task1i SYNCS 60607cid  VARNAME a VARID c:@a FUNCNAME _Z5task1i SYNCS ASYNC id  INVNO 632 INVNO 1
1READ THREADID 2 VARCLASS GLOBAL ADDRESS 0xREAD60607c1 VARNAME a VARID c:@a FUNCNAME  VARCLASS LOCAL OFFSETid 6334 INVNO  VARNAME i VARID c:mythread.h@152@F@task1#I#@i FUNCNAME _Z5task1i SYNCS ASYNC id 
634 THREADID MINVNO 2 VARCLASS GLOBAL1
60607c VARNAME R VA THRc:@a FUNCNAME _Z5task1i SYNCS ASYNC 1 VARCLASS LOCAL OFFSET 0x6354 INVNO  VARNAME i VARID 1
Z5task1i SYNCS ASYNC id 636 INVNO 2 VARCLASS LOCAL1
4 VARNAME i VARID c:mythread.h@152@F@task1#I#@i FUNCNAME READask1i SYNCS ASYNC  THREADID 637 INVNO 1 VARCLASS LOCAL OFFSET 0x1
14 VARNAME x VARID READthread.h@138@F@task1#I#@x FUN_Z5task1i ET 0x2551 SYNCS ASYNC id 2638 VARCLASS LOCAL OFFSET 0x INVNO 4 VARNAME i VARID c:mythread.h@152@F@task1#I#@i FUNCNAME 1 SYNCS ASYNC 
639RINV THREADID 1
1 VARCLASS GLOBAL ADDRESS 0xREAD THREADID 2 VARCLASS LOCAL OFFSET 0x60607c VARNAME 14 VARNAc:@x VARID c:mythread.h@138@F@ASYNC id x FUNCNASYNC id 640 INVNO 641 INVNO 11

READ THREADID WRITE THREADID 1 VARCLASS 2 VARCLASS GLOBAL ADDRESS 0x60607c60607cc:@a FUNCNAME  VARNAME a VARIDAc:@a F_Z5task1i SYNCS ASYNC id 642 INVNO 6431 INVNO 
1
READ THREADID WRITE THREADID 1 VARCLASS LOCAL OFFSET 0x2 VARCLASS GLOBAL ADDRESS 0x460607cME i VARID c:mythread.h@152@F VARNAME  _Z5task1i SYNCS ASYNC D c:@aid NCNAME _Z5task1i SYNCS ASYNC id 644 INVNO 645 INVNO 11
READ THREADID READ THREADID 1 VARCLASS LOCAL2 VARCLASS LOCAL OFFSET 0x4 VARNAME i4VARID c:mythread.h@152@F@task1#I#@i VARNAME i_Z5task1i  VARID c:mythid  FUNCNAME _Z5task1i SYNCS ASYNC id 646 INVNO 647 INVNO 11
AREADREAD THREADID 21 VARCLASS LOCAL OFFSET 0x VARCLASS 4OCAL OFFSET 0x VARNAME i VARID c:mythread.h@152@F@task1#I#@i20UNCNAMEASYNC id  VARNAME x VARID 648ythread SYNCS ASYNC id  INVNO 649 INVNO 1
1
READ THREADID READ THREADID 2 VARCLASS LOCAL1 VARCLASS GLOBAL ADDRESS 0x14 VARNAME x VARID 60607cread.h@138_Z5task1i SYNCS ASYNC i VARID c:@a FUNCNAME _Z5task1i SYNCS ASYNC id 651 VARNAME a VARID c:@a FUNCNAME _Z5task1i SYNCS ASYNC id 611 INVNO 1
READ THREADID 2 VARCLASS LOCAL OFFSET 0x4 VARNAME i VARID c:mythread.h@152@F@task1#I#@i FUNCNAME _Z5task1i SYNCS ASYNC id 612 INVNO 1
READ THREADID 2 VARCLASS LOCAL OFFSET 0x4 VARNAME i VARID c:mythread.h@152@F@task1#I#@i FUNCNAME _Z5task1i SYNCS ASYNC id 613 INVNO 1
READ THREADID 2 VARCLASS LOCAL OFFSET 0x14 VARNAME x VARID c:mythread.h@138@F@task1#I#@x FUNCNAME _Z5task1i SYNCS ASYNC id 614 INVNO 1
READ THREADID 10 INVNO 2 VARCLASS GLOBAL ADDRESS 0x160607c
 VARNAME a VARID c:@a FUNCNAME _Z5task1i SYNCS ASYNC id READ THREADID 615 INVNO 11
 VARCLASS WRITE THREADID 142 VARNAME x VARID  VARCLASS .h@138@F@task1#I#@x FUNCNAME GLOBAL_Z5task1i0xID 11
 VA SYNCS 60607cid  VARNAME a VARID c:@a616_INVNO 1i SYNCS ASYNC id 1617
 INVNO 1EAD THREADID 
1READCLASS GLOB THREADID  0x60607c2c:@a VARCLASS _Z5task1i LOCAL OASYNC id 4 VARNAME i VARID c:mythread.h@152@F@task1#I#@i618_Z5task1i SYNCS ASYNC id  INVNO 619 INVNO 1
1
READ THREADID 2WRITELASS LOCAL OFFSET 0x THREADID 4 VARNAME i VARID c:mythread.h@152@F@task1#I#@i1 VARCLASS SYNCS ASYGLOid  ADDRESS 0x60607c26c VARNAME a VARID  INVNO ASYNC id 1
621 INVNO READ THREADID 21 VARCLASS LOCAL
14 VARNAME x VARID c:mythread.h@138@F@task1#I#@x FUNCNAME _Z5task1i SYNCS ASYNC READARN THREADID 622 INVNO 11 VARCLASS LOCAL OFFSET 0xREAD THREADID 4 VARNAME i2 FUNCNAME GLOBAL ADDRESASYNC id 60607c623 VARNAME a VARID c:@a FUNCNAME  Z5task1i INVNO ASYNC id 624 1
1
READ THREADID WRITE THREADID 1 VARCLASS LOCAL2 VARCLASS GLOBAL ADDRESS 0x4 VARNAME 6 VARI Vc:mythra VARID c:@a FUNCNAME YNCS ASYNC id _Z5task1i SYNCS ASYNC id 625 INVNO 626 INVNO 11

READ THREADID READ2 VARCLASS LOCAL1 VARCLASS LOCAL OFFSET 0x4 VARNAME i VARID 14 FUNCNAME _Z5task1i VARNAMASYNC id x VARID 627_Z5task1i SYNCS ASYNC id  INVNO 628 INVNO 1
1
READ THREADID READ2 VARCLASS LOCAL1 VARCLASS GLOBAL ADDRESS 0x4 VARNAME 60607c VARNAME a VARID c:@ask1#I#@i FUNCNAME _Z5task1i SYNCS ASYNC  FUNCNAME _Z5task1i SYNCS ASY INid 630 1
1 THREADID 
2WRITE THREADID  OFFSET 0x114 VARNAME x VARID c:mythread.h@138@F@task1#I#@x FUNCNAME _Z5task1i SYNCS 60607cid  VARNAME a VARID c:@a FUNCNAME _Z5task1i SYNCS ASYNC id  INVNO 632 INVNO 1
1READ THREADID 2 VARCLASS GLOBAL ADDRESS 0xREAD60607c1 VARNAME a VARID c:@a FUNCNAME  VARCLASS LOCAL OFFSETid 6334 INVNO  VARNAME i VARID c:mythread.h@152@F@task1#I#@i FUNCNAME _Z5task1i SYNCS ASYNC id 
634 THREADID MINVNO 2 VARCLASS GLOBAL1
60607c VARNAME R VA THRc:@a FUNCNAME _Z5task1i SYNCS ASYNC 1 VARCLASS LOCAL OFFSET 0x6354 INVNO  VARNAME i VARID 1
Z5task1i SYNCS ASYNC id 636 INVNO 2 VARCLASS LOCAL1
4 VARNAME i VARID c:mythread.h@152@F@task1#I#@i FUNCNAME READask1i SYNCS ASYNC  THREADID 637 INVNO 1 VARCLASS LOCAL OFFSET 0x1
14 VARNAME x VARID READthread.h@138@F@task1#I#@x FUN_Z5task1i ET 0x2551 SYNCS ASYNC id 2638 VARCLASS LOCAL OFFSET 0x INVNO 4 VARNAME i VARID c:mythread.h@152@F@task1#I#@i FUNCNAME 1 SYNCS ASYNC 
639RINV THREADID 1
1 VARCLASS GLOBAL ADDRESS 0xREAD THREADID 2 VARCLASS LOCAL OFFSET 0x60607c VARNAME 14 VARNAc:@x VARID c:mythread.h@138@F@ASYNC id x FUNCNASYNC id 640 INVNO 641 INVNO 11

READ THREADID WRITE THREADID 1 VARCLASS 2 VARCLASS GLOBAL ADDRESS 0x60607c60607cc:@a FUNCNAME  VARNAME a VARIDAc:@a F_Z5task1i SYNCS ASYNC id 642 INVNO 6431 INVNO 
1
READ THREADID WRITE THREADID 1 VARCLASS LOCAL OFFSET 0x2 VARCLASS GLOBAL ADDRESS 0x460607cME i VARID c:mythread.h@152@F VARNAME  _Z5task1i SYNCS ASYNC D c:@aid NCNAME _Z5task1i SYNCS ASYNC id 644 INVNO 645 INVNO 11
READ THREADID READ THREADID 1 VARCLASS LOCAL2 VARCLASS LOCAL OFFSET 0x4 VARNAME i4VARID c:mythread.h@152@F@task1#I#@i VARNAME i_Z5task1i  VARID c:mythid  FUNCNAME _Z5task1i SYNCS ASYNC id 646 INVNO 647 INVNO 11
AREADREAD THREADID 21 VARCLASS LOCAL OFFSET 0x VARCLASS 4OCAL OFFSET 0x VARNAME i VARID c:mythread.h@152@F@task1#I#@i20UNCNAMEASYNC id  VARNAME x VARID 648ythread SYNCS ASYNC id  INVNO 649 INVNO 1
1
READ THREADID READ THREADID 2 VARCLASS LOCAL1 VARCLASS GLOBAL ADDRESS 0x14 VARNAME x VARID 60607cread.h@138_Z5task1i SYNCS ASYNC id 6 VARID c:@a FUNCNAME _Z5task1i SYNCS ASYNC id 651 INVNO 1
WRITE THREADID 1 VARCLASS GLOBAL ADDRESS 0x60607c VARNAME a VARID c:@a FUNCNAME _Z5task1i SYNCS ASYNC id 652 INVNO 1
READ THREADID 1 VARCLASS LOCAL OFFSET 0x4 VARNAME i VARID c:mythread.h@152@F@task1#I#@i FUNCNAME _Z5task1i SYNCS ASYNC id 653 INVNO 1
READ THREADID 1 VARCLASS LOCAL OFFSET 0x4 VARNAME i VARID c:mythread.h@152@F@task1#I#@i FUNCNAME _Z5task1i SYNCS ASYNC 50654 INVNO  INVNO 11

READ THREADID 2 VARCLASS NCNAME _Z5GLOBAL ADDRESS 0x60607c1 VARNAME a VARID c:@a FUNCNAME _Z5task1i SYNCS ASYNC  VARCLASS 060LOCAL OFFSET 0x655 INVNO 14 VARNAME x VARID 
:mythread.h@138@F@task1#I#@x FUNCNAME _Z5task1i SYNCS ASYNC id WRITE THREADID 6562  VARCLASS GLOBAL ADDRESS 0x60607c1 VARNAME a VARID c:@a FUNCNAME 
Z5task1i SYNCS ASYNC id READ6571 INVNO  VARCLASS GLOBAL ADDRESS 0x160607c
 VARNAME a VARID c:@a FUNCNAME _Z5task1i SYNCS READ Tid 6582 INVNO LOCAL OFFSET 0x14
 VARNAME i VARID c:mythread.h@152@F@task1#I#@i FUNCNAME _Z5task1i THREADASYNC id 1659 INVNO SS GLOBAL ADDRESS 0x60607c VARNAME a VARID c:@a FUNCNAME _Z5task1i SYNCS 
SYNC id 660RINVNO 21 VARCLASS LOCAL OFFSET 0x
4 VARNAME i VARID c:mythread.h@152@F@task1#I#@i FUNCNAME _Z5task1i SYNCS ASYNC READEAD THREADID 661 INVNO 1 VARCLASS 1
4READ VARNAME i VARID 2_Z5task1i VARCLAASYNC id #LOCAL OFFSET 0x662 INVNO 14 VARNAME x VARID 1 FUNCNAME 
Z5task1i SYNCS ASYNC id READ663 INVNO 1 VARCLASS LOCAL1
4READ VARNAME  ESASYNC ii VARID c:mythread.h@152@F@task1#I#@i2_Z5task1i SYNCS  ADDREid 0x60607c298 VARNAME   VARID c:@a FUNCNAME _Z5task1i SYNCS ASYNC 1
665 INVNO READ THREADID 1
1 VARCLASS LOCAL OFFSET 0xWRITE THREADID 142 VARCLASS VARID c:mythreadGLOBAL ADD_Z5task1i SYNCS ASYNC id 60607c VARNAME a VARID c:@a666_Z5task1i SYNCS AINVNOid 1667
 INVNO 1 1 VARCLASS GLOBAL ADDRESS 0xREAD THREADID 60607c VARNAME 2 VARID c:@a VARCLASS _Z5task1i2LOCAL OFFSET 0x SYNCS ASYNC 4 VARNAME i VARID c:mythread.h@152@F@task1#I#@i668_INVNO 1i SYNCS ASYNC id 1
669 INVNO WRITE THREADID 1
1 VARCLASS GLOBAL ADDRESS 0xREAD THREADID 60607c VARNAME a VARCLAc:@LOCAL OFFSE_Z5task1i SYNCS ASYNC 4 VARNAME i VARID c:mythread.h@152@F@task1#I#@i FUNCNAME 670task1i SYNCS ASYNC id  INVNO 671 INVNO 1
1
READ THREADID READ THREADID 1 VARCLASS LOCAL2 VARCLASS LOCAL OFFSET 0x414 VARNAME i VARNAMc:x VARID  FUNCNAME _Z5task1i SYNCS ASYNC id AME _Z5task1i SYNCS ASYNC id 673672 INVNO 11
READ THREADID READ THREADID 21 VARCLASS GLOBAL ADDLOCAL OFFSET 0x460607c VARNAME i VARID c:mythread.h@152@F@task1#I#@i FUNCNAME  VARNAME a_Z5taskc:@a FUNCNAME _Z5task1i SYNCS  SYNCSid ASYNC 674 INVNO 675 INVNO 1
1WRITE THREADID 2 THREADID  VARCLASS GLOBAL ADDRESS 0x1 VARCLASS LOCAL OFFSET 0x60607c VARNAME 14 VARNAME NAME _Z5task1i SYNCS x VARIid  SYNc:mythread.h@138@F@task1# FUNCNAME _Z5task1i676id  INVNO 677 INVNO 1
1
READ THREADID READ THREADID 12 VARCLASS GLOBAL ADDRESS  OFFSET 0x60607c VARNAME 4 VARID c:@a VARNAME i VARID c:mythread.h@15id  FUNCNAME _Z5task1i SYNCS ASYNC id 678 INVNO 679 INVNO 1
1
WRITE THREADID READ THREADID 1 VARCLASS GLOBAL2 VARCLASS LOCAL OFFSET 0x60607c VARNAME a VARID c:@a FUNCNAME _Z5task1i SYNCS ASYNC ME i VARIDid  FUNCNAME _Z5task1i SYNCS ASYNC id 680 INVNO 681 INVNO 1
1READR THREADID 2READCLASS LOCA THREADID 14 VARNAME x VARID c:mythread.h@138@F@task1#I#@x1 VARCLASS SYNCS ASYNC id  OFFSET 0x42aa VARNAME iINVNO  c:mythread.h@152@F@task1#I#@i FUNCNAME _Z5task1i SYNCS ASYNC id 
READ THREADID 6832 VARCLASS GLOBAL ADDRESS 0x1
60607c VARNAME aREAD THREADID NCNAME _Z5task1i SYNCS ASYNC id 1684 INVNO LOCAL OFFSET 0x1
4 VARNAME i THREADc:mythread.h@152@F@t_Z5task1i2SYNCS ASYNC id  VARCLASS GLOBAL ADDRESS 0x685 INVNO 60607c VARNAME a VARID 1:@a FUNCNAME _Z5task1i SYNCS ASYNC id 
686 INVNO READ THREADID 11 VARCLASS CLOCAL OFFSET 0x14 VAR THREx VARID c VARCLASS h@138@F@task1#I#@x  FUNCNAME LOCAL OFFSETASYNC id 4687 VARNAME i VARID c:mythread.h@152@F@task1#I#@i FUNCNAME  INVNO 1i SYNCS ASYNC id 6881 INVNO 
1EAD THREADID 
1 VARCLASS GLOBAL ADDRESS 0xREAD THREADID 60607c VARNAME a VARID c:@a FUNC OFFSET 0x_Z5task1i SYNCS ASYNC id 4 VARNAME i VARID 689 INVNO 1
WRITE THREADII#@i FUNCNAME _Z5task1i SYNCS ASYNC id 690 INVNO 1
NVNO 1
WRITE THREADID 1 VARCLASS GLOBAL ADDRESS 0x60607c VARNAME a VARID c:@a FUNCNAME _Z5task1i SYNCS ASYNC id 652 INVNO 1
READ THREADID 1 VARCLASS LOCAL OFFSET 0x4 VARNAME i VARID c:mythread.h@152@F@task1#I#@i FUNCNAME _Z5task1i SYNCS ASYNC id 653 INVNO 1
READ THREADID 1 VARCLASS LOCAL OFFSET 0x4 VARNAME i VARID c:mythread.h@152@F@task1#I#@i FUNCNAME _Z5task1i SYNCS ASYNC 50654 INVNO  INVNO 11

READ THREADID 2 VARCLASS NCNAME _Z5GLOBAL ADDRESS 0x60607c1 VARNAME a VARID c:@a FUNCNAME _Z5task1i SYNCS ASYNC  VARCLASS 060LOCAL OFFSET 0x655 INVNO 14 VARNAME x VARID 
:mythread.h@138@F@task1#I#@x FUNCNAME _Z5task1i SYNCS ASYNC id WRITE THREADID 6562  VARCLASS GLOBAL ADDRESS 0x60607c1 VARNAME a VARID c:@a FUNCNAME 
Z5task1i SYNCS ASYNC id READ6571 INVNO  VARCLASS GLOBAL ADDRESS 0x160607c
 VARNAME a VARID c:@a FUNCNAME _Z5task1i SYNCS READ Tid 6582 INVNO LOCAL OFFSET 0x14
 VARNAME i VARID c:mythread.h@152@F@task1#I#@i FUNCNAME _Z5task1i THREADASYNC id 1659 INVNO SS GLOBAL ADDRESS 0x60607c VARNAME a VARID c:@a FUNCNAME _Z5task1i SYNCS 
SYNC id 660RINVNO 21 VARCLASS LOCAL OFFSET 0x
4 VARNAME i VARID c:mythread.h@152@F@task1#I#@i FUNCNAME _Z5task1i SYNCS ASYNC READEAD THREADID 661 INVNO 1 VARCLASS 1
4READ VARNAME i VARID 2_Z5task1i VARCLAASYNC id #LOCAL OFFSET 0x662 INVNO 14 VARNAME x VARID 1 FUNCNAME 
Z5task1i SYNCS ASYNC id READ663 INVNO 1 VARCLASS LOCAL1
4READ VARNAME  ESASYNC ii VARID c:mythread.h@152@F@task1#I#@i2_Z5task1i SYNCS  ADDREid 0x60607c298 VARNAME   VARID c:@a FUNCNAME _Z5task1i SYNCS ASYNC 1
665 INVNO READ THREADID 1
1 VARCLASS LOCAL OFFSET 0xWRITE THREADID 142 VARCLASS VARID c:mythreadGLOBAL ADD_Z5task1i SYNCS ASYNC id 60607c VARNAME a VARID c:@a666_Z5task1i SYNCS AINVNOid 1667
 INVNO 1 1 VARCLASS GLOBAL ADDRESS 0xREAD THREADID 60607c VARNAME 2 VARID c:@a VARCLASS _Z5task1i2LOCAL OFFSET 0x SYNCS ASYNC 4 VARNAME i VARID c:mythread.h@152@F@task1#I#@i668_INVNO 1i SYNCS ASYNC id 1
669 INVNO WRITE THREADID 1
1 VARCLASS GLOBAL ADDRESS 0xREAD THREADID 60607c VARNAME a VARCLAc:@LOCAL OFFSE_Z5task1i SYNCS ASYNC 4 VARNAME i VARID c:mythread.h@152@F@task1#I#@i FUNCNAME 670task1i SYNCS ASYNC id  INVNO 671 INVNO 1
1
READ THREADID READ THREADID 1 VARCLASS LOCAL2 VARCLASS LOCAL OFFSET 0x414 VARNAME i VARNAMc:x VARID  FUNCNAME _Z5task1i SYNCS ASYNC id AME _Z5task1i SYNCS ASYNC id 673672 INVNO 11
READ THREADID READ THREADID 21 VARCLASS GLOBAL ADDLOCAL OFFSET 0x460607c VARNAME i VARID c:mythread.h@152@F@task1#I#@i FUNCNAME  VARNAME a_Z5taskc:@a FUNCNAME _Z5task1i SYNCS  SYNCSid ASYNC 674 INVNO 675 INVNO 1
1WRITE THREADID 2 THREADID  VARCLASS GLOBAL ADDRESS 0x1 VARCLASS LOCAL OFFSET 0x60607c VARNAME 14 VARNAME NAME _Z5task1i SYNCS x VARIid  SYNc:mythread.h@138@F@task1# FUNCNAME _Z5task1i676id  INVNO 677 INVNO 1
1
READ THREADID READ THREADID 12 VARCLASS GLOBAL ADDRESS  OFFSET 0x60607c VARNAME 4 VARID c:@a VARNAME i VARID c:mythread.h@15id  FUNCNAME _Z5task1i SYNCS ASYNC id 678 INVNO 679 INVNO 1
1
WRITE THREADID READ THREADID 1 VARCLASS GLOBAL2 VARCLASS LOCAL OFFSET 0x60607c VARNAME a VARID c:@a FUNCNAME _Z5task1i SYNCS ASYNC ME i VARIDid  FUNCNAME _Z5task1i SYNCS ASYNC id 680 INVNO 681 INVNO 1
1READR THREADID 2READCLASS LOCA THREADID 14 VARNAME x VARID c:mythread.h@138@F@task1#I#@x1 VARCLASS SYNCS ASYNC id  OFFSET 0x42aa VARNAME iINVNO  c:mythread.h@152@F@task1#I#@i FUNCNAME _Z5task1i SYNCS ASYNC id 
READ THREADID 6832 VARCLASS GLOBAL ADDRESS 0x1
60607c VARNAME aREAD THREADID NCNAME _Z5task1i SYNCS ASYNC id 1684 INVNO LOCAL OFFSET 0x1
4 VARNAME i THREADc:mythread.h@152@F@t_Z5task1i2SYNCS ASYNC id  VARCLASS GLOBAL ADDRESS 0x685 INVNO 60607c VARNAME a VARID 1:@a FUNCNAME _Z5task1i SYNCS ASYNC id 
686 INVNO READ THREADID 11 VARCLASS CLOCAL OFFSET 0x14 VAR THREx VARID c VARCLASS h@138@F@task1#I#@x  FUNCNAME LOCAL OFFSETASYNC id 4687 VARNAME i VARID c:mythread.h@152@F@task1#I#@i FUNCNAME  INVNO 1i SYNCS ASYNC id 6881 INVNO 
1EAD THREADID 
1 VARCLASS GLOBAL ADDRESS 0xREAD THREADID 60607c VARNAME a VARID c:@a FUNC OFFSET 0x_Z5task1i SYNCS ASYNC id 4 VARNAME i VARID 689 INVNO 1
WRITE THREADI THREADID 2 VARCLASS GLOBAL ADDRESS 0x60607c VARNAME a VARID c:@a FUNCNAME _Z5task1i SYNCS ASYNC id E x VARID c:mythread.h@138@F@task1#I#@x FUNCNAME _Z5task1i SYNCS ASYNC id 691 INVNO 1
READ THREADID 2 VARCLASS GLOBAL ADDRESS 0x60607c VARNAME a VARID c:@a FUNCNAME _Z5task1i SYNCS ASYNC id 692 INVNO 1
WRITE THREADID 2 VARCLASS GLOBAL ADDRESS 0x60607c VARNAME a VARID c:@a FUNCNAME _Z5task1i SYNCS ASYNC id 693 INVNO 1
READ THREADID 2 VARCLASS LOCAL OFFSET 0x4  VARNAME i VARID c:mythread.h@152@F@task1#I#@i1FUNCNAME _Z5task1i VARCLAASYGLOid  ADDRESS 0x60607c VARNAME a2b6 INVNO _Z5task1i SYNCS ASYNC id 
695RINVNO  THREADID 12
 VARCLASS LOCAL OFFSET 0x4 VARNAME i VARID c:mythread.h@152@F@task1#I#@i FUNCNAME _Z5task1i SYNCS READC id  THREADID 696 1 VARCLASS LOCAL OFFSET 0x1
4 VARNAME R VARID c:mythread.h@152@F@task1#I#@iL A FUNCNAME _Z5task1i SYNCS ASYNC id  VARCLASS LOCAL OFFSET 0x69714 INVNO  VARNAME x VARID c:mythread.h@138@F@task1#I#@x FUNCNAME 1 SYNCS ASYNC 
d #698 INVNO READ THREADID 1 VARCLASS LOCAL1
4 THREADID  VARNAME i VARID c:mythread.h@152@F@task1#I#@i FUNCNAME _Z5task1i SYNCS 2ASYNC id  GLOBAL ADDRESS 0x60607c2bb VARNAME a VARID c:@a FUNCNAME  INVNO 1i SYNid 1700
 INVNO 1 THREADID 
1WRITE THREADID  OFFSET 0x214 VARCLASS GLOBAL ADDRESS 0x VARNAME x VARcD c:mythread.h@138@F@task1#I#@x FUNCNAME _Z5task1i SYNCS ASYNC ME a VARIidc:@a FUNCNAME _Z5task1i SYNCS ASYNC id 701 INVNO 702 INVNO 1
1
READ THREADID 1EAD THREADID  VARCLASS GLOBAL ADDRESS 0x60607c VARNAME a VARID c:@a2FUNCNAME _Z5task1i VARCLAASYLOCid OFFSET 0x703 INVNO 4 VARNAME i VARID c:mythread.h@152@F@task1#I#@i FUNCNAME 1_Z5task1i SYNCS ASYNC id WRITE THREADID 7041 INVNO  VARCLASS GLOBAL ADDRESS 0x60607c1 VARNAME 
 VARID c:@a FUNCNAME _Z5task1i SYNCS ASYNC id READ THREADID 2705 VARCLASS LOCAL OFFSET 0x INVNO 41 VARNAME i VARID 
:mythread.h@152@F@task1#I#@i FUNCNAME _Z5task1i SYNCS ASYNC id 706 INVNO 11
 VARCLASS LOCAL OFFSET 0x4EAD THREADID  VARNAME i VARID 2 VARCLASS LOCAL ASYNC  0x#@i FUid 20 VARNAME x VARID 707 FUNCNAME  INVNO 1i SYNid 708 INVNO 1
1
READ THREADID READ THREADID 12 VARCLASS GLOBA OFFSET 0x0x460607c VARNAME i VARID c: VARID c:@a FUNCNAME 1#I#@isk FUNCNAME _Z5task1i_Z5taskAS SYNCS ASYNC id 709 INVNO 710 INVNO 11

WRITE THREADID READ THREADID 2 VARCLASS GLOBAL ADDRESS 0x1 VARCLASS LOCAL OFFSET 0x60607c14 VARNAME a VARID c:@a FUNCNAME _Z5task1i SYNCS ASYNC id :mythread.h@138@F@task1#I# FUNCNAME 711task1i SYNCS ASYNC id  INVNO 712 INVNO 11

READ THR THREADID 12 VARCLASS GLOBAL VARCLASS LOCAL OFFSET 0x460607c VARNAME i VARID c:mythread.h@1_Z5task1i SYNCS ASYNC id 5 IN FUNCNAME _Z5task1i SYNCS ASYNC id 713 INVNO 713 INVNO 1
1WRITE THREADID READ THREADID 1 VARCLASS GLOBAL2 VARCLASS LOCAL OFFSET 0x460607c VARNAME i VARID c:mythread.h@152@F@task1#I#@i FUNCNAME _Z5task1i SYNCS  VARNAid EAD THa VARID c:@a714NCNAME _Z5task1i INVNO ASYNC id 7151 INVNO 
1
READ THREADID 2 VARCLASS VARNAME i LOCAL OFFSET 0x114 VARCLASS  VARN OFFSET 0x VARID c:mythread.h@138@F@task1#I#@x FUNCNAME _Z5task1i4id  VARNAME i VARID 716_Z5task1i SYNCS ASYNC id  INVNO 717 INVNO 1
1
EAD THREADID 2 VARCLASS GLOBAL ADDRESS 0xREAD60607c VARNAME a1 FUNCNAME LOCALsk1i SYNCS ASYNC id  OFFSET 0x718 INVNO 4 VARNAME i
VARID c:mythread.h@152@F@task1#I#@i FUNCNAME _Z5task1i SYNCS ASYNC WRITEI#@ THREADID 7192  VARCLASS d  OFFGLOBAL ADDRESS 0x1
60607c VARNAME a VARID c:@a FUNCNAME _Z5task1i SYNCS READC id  THREADID 720 INVNO 1 VARCLASS LOCAL1
14 VARNAME xREAD THREADID ead.h@138@F@task1#I#@x FUNCNAME _Z5task1i SYNCS ASYNC 2 VARCLASS LOCAL OFFSET 0x721 INVNO 4 VARNAME i VARID 1
FUNCNAME _Z5task1i SYNCS ASYNC id READ THREADID 1 VARCLASS GLOBAL ADDRESS 0x722 INVNO 60607c VARNAME a
VARID c:@a FUNCNAME _Z5task1i SYNCS ASYNC id READ THREADID 7232  VARCLASS LOCAL OFFSET 0x14 VARNAME i VARID c:mythread.h@152@F@task1#I#@i FUNCNAME _Z5task1i SYNCS WRITE id  THREADID 7241 INVNO  VARCLASS GLOBAL ADDRESS 0x1
60607c VARNAME a VARID READ THREADID _Z5task1i SYNCS ASYNC id 2 VARCLASS LOCAL OFFSET 0x725 INVNO 14 VARNAME x VARID 1 FUNCNAME 
Z5task1i SYNCS ASYNC id 726D THREADID  INVNO 1 VARCLASS LOCAL OFFSET 0x1
4 VARN4 VARNAME i VARID c:mythread.h@152@F@task1#I#@i FUNCNAME _Z5task1i SYNCS ASYNC id 765 INVNO 1
READ THREADID O 1
WRITE THREADID 2 VARCLASS GLOBAL ADDRESS 0x60607c VARNAME a VARID c:@a FUNCNAME _Z5task1i SYNCS ASYNC id 728 INVNO 1
READ THREADID 2 VARCLASS LOCAL OFFSET 0x4 VARNAME i VARID c:mythread.h@152@F@task1#I#@i FUNCNAME _Z5task1i SYNCS ASYNC id 729 INVNO 1
READ THREADID 2 VARCLASS LOCALAME i VARID c VARNAME i VARID c:mythread.h@152@F@task1#I#@i FUNCNAME _Z5task1i SYNCS ASYNC id  SYNCS ASYNC id 730730 INVNO  INVNO 1
1READ THREADID 2 VARCLASS LOCAL OFFSET 0xREAD14 VARNAME x VARID 1 FUNCNAME  VARCLASS SYNCS ASYNC id 4731 INVNO E i VARID c:mythread.h@152@F@task1#I#@i FUNCNAME 1_Z5task1i SYNCS ASYNC id READ THREADID 2732 VARCLASS GLOBAL ADDRESS 0x INVNO 60607c VARNAME a VARID 1:@a FUNCN SYNCS ASYNC id 
733 INVNO READ THREADID 11
 VARCLASS LOCAL OFFSET 0xWRITE THREADID 142 VARNAME x VARID  VARCLASS .h@138@F@task1#I#@x FUNCNAME _Z5task1iGLOBAL ASYNC id 60607c VARNAME a VARID c:@a734_Z5task1i INV1735
 INVNO READ THREADID 11 VARCLASS GLOBAL
60607c VAR THREa VARID c:@a FUNCNAME 2Z5task1i SYNCS ASYNC id  VARCLASS LOCAL736 4 VARNAME i VARID c:mythread.h@152@F@task1#I#@i FUNCNAME _Z5task1i SYNCS ASYNC id 1
737WINVN THREADID  V11 VARCLASS GLOBAL ADDRESS 0x
60607c VARNAME  THREADID a VARID c:@a FUNCNAME _Z5task1i SYNCS 2SYNC id  VARCLASS LOCAL OFFSET 0x738 INVNO 4 VARNAME i VARID 1_Z5task1i SYNCS ASYNC 
739 INVNO 1
EAD THREADID 1READ THREADID  OFFSET 0x42 VARNAME i VARID  VARCLASS LOCAL OFFS_Z5task1i SYNCS ASYNC id 20 VARNAME 740ARID c:mythread.h@138@F@task1 FUNCNAME _Z5task1i SYNCS ASYNC  INVNO 741 INVNO 11

READ THREADID 2READ THREADID  ADDRESS 0x60607c1 VARNAME a VARID c:@a FUNCNAME  VARCLASS LOCAL OFFSETid 7424 INVNO  VARNAME i VARID 1:mythread.h@152@F@task1#I#@i
_Z5task1i SYNCS ASYNC id WRITE THREADID 2743 VARCLASS GLOBAL ADDRESS 0x INVNO 60607c VARNAME a1c:@a FUNCNAME _Z5task1i SYNCS ASYNC id READ THREADID 7441 INVNO  VARCLASS LOCAL OFFSET 0x141VARNAME x
VARID c:mythread.h@138@F@task FUNCNAME _Z5task1i SYNCS ASYNC id READ THREADID 745 INVNO 2 VARCLASS LOCAL OFFSET 0x14
 VARNAME i VARID READ THREADID 52@F@task1#I#@i FUNCNAME _Z5task1i SYNCS ASYNC id 1 VARCLASS GLOBAL ADDRESS 0x746 INVNO 60607c1
VARNAME a VARID c:@a FUNCNAME READask1i SYNCS ASYNC id 2 VARCLASS LOCAL OFFSET 0x747 INVNO 4 VARNAME i VARID c:mythread.h@152@F@task1#I#@i FUNCNAME 1ASYNC id 
748 INVNO WRITE THREADID 1
1 VARCLASS GLOBAL ADDRESS 0xREAD THREADID 60607c VARNAME a VARID c:@a2_Z5task1iLOCALS ASYNC id  OFFSET 0x74914 INVNO  VARNAME x VARID c:mythread.h@138@F@task1#I#@x FUNCNAME _Z5task1i SYNCS 1SYNC id 
750 INVNO READ THREADID 1
1 VARCLASS LOCAL2 VARCLASS GLOBAL ADDRESS 0x4 VARNAME a VARID c:@a FUNCNAME _Z5task1i SYNCS ASYNC id  VARNAME i751c:mythread.h@152@F@task1#I#@i INVNO ME _Z5task1i SYNCS ASYNC id 1
752WINVN THREADID 21 VARCLASS GLOBAL ADDRESS 0x
60607c VARNAME a VARID c:@a FUNCNAME _Z5task1i THREADASYNC id 1 VARCLASS LOCAL753 INVNO 4 VARNAME i VARID c:mythread.h@152@F@task1#I#@i FUNCNAME 
Z5task1i SYNCS ASYNC id READ754 2 VARCLASS LOCAL OFFSET 0x14
 VARNAME i VARID c:mythread.h@152@F@task1#I#@i FUNCNAME _Z5task1i SYNCS READC id  THREADID 7551 INVNO  VARCLASS LOCAL1
14 VAR THREx VARID c:mythread.h@138@F@task1#I#@x FUNCNAME _Z5task1i SYNCS  VARCLid  LOCAL OFFSET 0x4 VARNAME i VARID 2f4_Z5task1i SYNCS ASYNC id  INVNO 757 INVNO 1
1READ THREADID 1 VARCLASS GLOBAL ADDRESS 0x2 VARCLASS LOCAL OFFSET 0x60607c VARNAME 1 VARID c:@a FUNCNAME _Z5task1ixSYNCS ASYNC  VAc:mythread.h@138@F@task1#I#@x FUNCNAME _Z5task1i SYNCS 758NC id  759 INVNO 11

READ THREADID WRITE THREADID 21 VARCLASS GLOBAL ADDRESS 0x VARCLASS 60607c VARNAME a VARID 60607c_Z5task1i SYNCS ASYNC id a VARID c:@a FUNCNAME _Z5task1i SYNCS 760AINVNOid 7611 INVNO 
WRITE1
2 VARCLASS GLOBAL ADDRESS 0x6060 T VARNAME a VARID c:@a FUNCNAME 1Z5task1i SYNCS ASYNC id  VARCLASS LOCAL OFFSET 0x7624 VARNAME i VARID c:mythread.h@152@F@task1#I#@i FUNCNAME 1_Z5task1ASYNC id 763 INVNO 2 VARCLASS LOCAL OFFSET 0x1
4 VARNAME i VARID c:mythread.h@152@F@task1#I#@i FUNCNAME READ THREADID ASYNC id 1 VARCLASS LOCAL OFFSET 0x74 VARNAME i VARID c:mythread.h@152@F@task1#I#@i FUNCNAME _Z5task1i SYNCS ASYNC id 765 INVNO 1
READ THREADID 1 VARCLASS LOCAL OFFSET 0x14 VARNAME x VARID c:mythread.h@138@F@task1#I#@x FUNCNAME _Z5task1i SYNCS ASYNC id 766 INVNO 1
READ THREADID 1 VARCLASS GLOBAL ADDRESS 0x60607c VARNAME a VARID c:@a FUNCNAME _Z5task1i SYNCS ASYNC id 767 INVNO 1
WRITE THREADID 1 VARCLASS GLOBAL ADDRESS 0x60607c VARNAME a VARID c:@a FUNCNAME _Z5task1i SYNCS ASYNC id 768 INVNO 64
 INVNO READ THREADID 1
1 VARCLASS LOCAL OFFSET 0xREAD THREADID 42 VARNAME i VARID c:mythread.h@152@F@task1#I#@i VARCLASS _Z5task1i OFFSETASYNC ASSid 4769 VARNAME i INVNO c:mythread.h@152@F@task1#I#@i FUNCNAME _Z5tasASYNC id 1
770 INVNO READ THREADID 11
VARCLASS LOCAL OFFSET 0x4READ THREADID  VARNAME i VARID 2c:mythreadLOCAL OFFSET 0x14 FUNCNAMEx_Z5taskc: SYNCS ASYNC id @task1#_Z5task1i SYNCS ASYNC id 772 INVNO 771 INVNO 1
READ THREADID 1
2 VARCLASS GLOBAL ADDRESS 0x60607c VARNAME a VARID c:@a FUNCNAME _Z5task1i1id  VARCLASS LOCAL773 INVNO 14 VARNAME x VARID c:mythread.h@138@F@task1#I#@x FUNCNAME 
_Z5task1i SYNCS ASYNC id WRITE THREADID 2 VARCLASS GLOBAL ADDRESS 0x774 INVNO 60607c VARNAME a VARID c:@a1FUNCNAME _Z5task1i
SYNCS ASYNC iREAD THREADID 775 INVNO 11
 VARCLASS GLOBAL ADDRESS 0x60607c THREADID  VARNAME a VARID c:@a FUNCNAME _Z5task1i2 VARCLASS C SLOCAL OFFSET 0x776 INVNO 4 VARNAME i VARID c:mythread.h@152@F@task1#I#@i FUNCNAME 1 SYNCS ASYNC id WRITE THREADID 777 INVNO 1 VARCLASS GLOBAL ADDRESS 0x1
60607c VARNAME a VARID c:@a FUNCNAME _Z5t THREADID SYNCS ASYNC id 2 VARCLASS LOCAL OFFSET 0x778 INVNO 4 VARNAME i VARID c:mythread.h@152@F@task1#I#@i FUNCNAME _Z5task1i SYNCS 1SYNC id 
779 INVNO READ THREADID 11 VARCLASS LOCAL OFFSET 0x
4 VAR THREi VARID c:mythread.h@152@F@task1#I#@i FUNCNAME 2 SYNCSASSYLOCid OFFSET 0x1430c VARNAME x VARID c:mythread.h@138@F@task1#I#@x FUNCNAME  INVNO 1i SYNCASYNC id 1
781 INVNO READ THREADID 11 VARCLASS LOCAL OFFSET 0x
4 THREADID  VARNAME i VARID 2 VARCLASS GLOBAL ADDRESS 0ASYNC id 60607c VARNAME 7 VARID c:@a INVNO ME _Z5task1i SYNCS ASYNC id 1
783 READ THREADID 1 VARCLASS LOCAL1OFFSET 0x
14 VARNAME x VARID c:mythread.h@138@F@task1#I#@x2 SYNCS ASYGLOid  ADDRESS 0x31060607c INVNO M VARID c:@a FUNCNAME 1Z5task1i SYNCS ASYNC id 
785 INVNO 1
READ THREADID 2 VARCLASS LOCAL OFFSET 0x4 VARNAME i VARID c:mythread.h@152@F@task1#I#@i FUNCNAME _Z5task1i SYNCS ASYNC id 786 INVNO 1
READ THREADID 2 VARCLASS LOCAL OFFSET 0x4 VARNAME i VARID c:mythread.h@152@F@task1#I#@i FUNCNAME _Z5task1i SYNCS ASYNC id 787 INVNO 1
READ THREADID 2 VARCLASS LOCAL OFFSET 0x14 VARNAME x VARID c:mythread.h@138@F@task1#I#@x FUNCNAME _Z5task1i SYNCS ASYNC id 788 INVNO 1
READ THREADID 2 VARCLASS GLOBAL ADDRESS 0x60607c VARNAME a VARID c:@a FUNCNAME _Z5task1i SYNCS ASYNC id 789 INVNO 1
WRITE THREADID 2 VARCLASS GLOBAL ADDRESS 0x60607c VARNAME a VARID c:@a FUNCNAME _Z5task1i SYNCS ASYNC id 790 INVNO 1
READ THREADID 2 VARCLASS LOCAL OFFSET 0x4 VARNAME i VARID c:mythread.h@152@F@task1#I#@i FUNCNAME _Z5task1i SYNCS ASYNC id 791 INVNO 1
READ THREADID 2 VARCLASS LOCAL OFFSET 0x4 VARNAME i VARID c:mythread.h@152@F@task1#I#@i FUNCNAME _Z5task1i SYNCS ASYNC id 792 INVNO 1
READ THREADID 2 VARCLASS LOCAL OFFSET 0x14 VARNAME x VARID c:mythread.h@138@F@task1#I#@x FUNCNAME _Z5task1i SYNCS ASYNC id 793 INVNO 1
READ THREADID 2 VARCLASS GLOBAL ADDRESS 0x60607c VARNAME a VARID c:@a FUNCNAME _Z5task1i SYNCS ASYNC id 794 INVNO 1
WRITE THREADID 2 VARCLASS GLOBAL ADDRESS 0x60607c VARNAME a VARID c:@a FUNCNAME _Z5task1i SYNCS ASYNC id 795 INVNO 1
READ THREADID 2 VARCLASS LOCAL OFFSET 0x4 VARNAME i VARID c:mythread.h@152@F@task1#I#@i FUNCNAME _Z5task1i SYNCS ASYNC id 796 INVNO 1
READ THREADID 2 VARCLASS LOCAL OFFSET 0x4 VARNAME i VARID c:mythread.h@152@F@task1#I#@i FUNCNAME _Z5task1i SYNCS ASYNC id 797 INVNO 1
READ THREADID 2 VARCLASS LOCAL OFFSET 0x14 VARNAME x VARID c:mythread.h@138@F@task1#I#@x FUNCNAME _Z5task1i SYNCS ASYNC id 798 INVNO 1
READ THREADID 2 VARCLASS GLOBAL ADDRESS 0x60607c VARNAME a VARID c:@a FUNCNAME _Z5task1i SYNCS ASYNC id 799 INVNO 1
WRITE THREADID 2 VARCLASS GLOBAL ADDRESS 0x60607c VARNAME a VARID c:@a FUNCNAME _Z5task1i SYNCS ASYNC id 800 INVNO 1
READ THREADID 2 VARCLASS LOCAL OFFSET 0x4 VARNAME i VARID c:mythread.h@152@F@task1#I#@i FUNCNAME _Z5task1i SYNCS ASYNC id 801 INVNO 1
READ THREADID 2 VARCLASS LOCAL OFFSET 0x4 VARNAME i VARID c:mythread.h@152@F@task1#I#@i FUNCNAME _Z5task1i SYNCS ASYNC id 802 INVNO 1
READ THREADID 2 VARCLASS LOCAL OFFSET 0x14 VARNAME x VARID c:mythread.h@138@F@task1#I#@x FUNCNAME _Z5task1i SYNCS ASYNC id 803 INVNO 1
READ THREADID 2 VARCLASS GLOBAL ADDRESS 0x60607c VARNAME a VARID c:@a FUNCNAME _Z5task1i SYNCS ASYNC id 804 INVNO 1
WRITE THREADID 2 VARCLASS GLOBAL ADDRESS 0x60607c VARNAME a VARID c:@a FUNCNAME _Z5task1i SYNCS ASYNC id 805 INVNO 1
READ THREADID 2 VARCLASS LOCAL OFFSET 0x4 VARNAME i VARID c:mythread.h@152@F@task1#I#@i FUNCNAME _Z5task1i SYNCS ASYNC id 806 INVNO 1
READ THREADID 2 VARCLASS LOCAL OFFSET 0x4 VARNAME i VARID c:mythread.h@152@F@task1#I#@i FUNCNAME _Z5task1i SYNCS ASYNC id 807 INVNO 1
READ THREADID 2 VARCLASS LOCAL OFFSET 0x14 VARNAME x VARID c:mythread.h@138@F@task1#I#@x FUNCNAME _Z5task1i SYNCS ASYNC id 808 INVNO 1
READ THREADID 2 VARCLASS GLOBAL ADDRESS 0x60607c VARNAME a VARID c:@a FUNCNAME _Z5task1i SYNCS ASYNC id 809 INVNO 1
WRITE THREADID 2 VARCLASS GLOBAL ADDRESS 0x60607c VARNAME a VARID c:@a FUNCNAME _Z5task1i SYNCS ASYNC id 810 INVNO 1
READ THREADID 2 VARCLASS LOCAL OFFSET 0x4 VARNAME i VARID c:mythread.h@152@F@task1#I#@i FUNCNAME _Z5task1i SYNCS ASYNC id 811 INVNO 1
READ THREADID 2 VARCLASS LOCAL OFFSET 0x4 VARNAME i VARID c:mythread.h@152@F@task1#I#@i FUNCNAME _Z5task1i SYNCS ASYNC id 812 INVNO 1
READ THREADID 2 VARCLASS LOCAL OFFSET 0x14 VARNAME x VARID c:mythread.h@138@F@task1#I#@x FUNCNAME _Z5task1i SYNCS ASYNC id 813 INVNO 1
READ THREADID 2 VARCLASS GLOBAL ADDRESS 0x60607c VARNAME a VARID c:@a FUNCNAME _Z5task1i SYNCS ASYNC id 814 INVNO 1
WRITE THREADID 2 VARCLASS GLOBAL ADDRESS 0x60607c VARNAME a VARID c:@a FUNCNAME _Z5task1i SYNCS ASYNC id 815 INVNO 1
READ THREADID 2 VARCLASS LOCAL OFFSET 0x4 VARNAME i VARID c:mythread.h@152@F@task1#I#@i FUNCNAME _Z5task1i SYNCS ASYNC id 816 INVNO 1
READ THREADID 2 VARCLASS LOCAL OFFSET 0x4 VARNAME i VARID c:mythread.h@152@F@task1#I#@i FUNCNAME _Z5task1i SYNCS ASYNC id 817 INVNO 1
READ THREADID 2 VARCLASS LOCAL OFFSET 0x14 VARNAME x VARID c:mythread.h@138@F@task1#I#@x FUNCNAME _Z5task1i SYNCS ASYNC id 818 INVNO 1
READ THREADID 2 VARCLASS GLOBAL ADDRESS 0x60607c VARNAME a VARID c:@a FUNCNAME _Z5task1i SYNCS ASYNC id 819 INVNO 1
WRITE THREADID 2 VARCLASS GLOBAL ADDRESS 0x60607c VARNAME a VARID c:@a FUNCNAME _Z5task1i SYNCS ASYNC id 820 INVNO 1
READ THREADID 2 VARCLASS LOCAL OFFSET 0x4 VARNAME i VARID c:mythread.h@152@F@task1#I#@i FUNCNAME _Z5task1i SYNCS ASYNC id 821 INVNO 1
READ THREADID 2 VARCLASS LOCAL OFFSET 0x4 VARNAME i VARID c:mythread.h@152@F@task1#I#@i FUNCNAME _Z5task1i SYNCS ASYNC id 822 INVNO 1
READ THREADID 2 VARCLASS LOCAL OFFSET 0x14 VARNAME x VARID c:mythread.h@138@F@task1#I#@x FUNCNAME _Z5task1i SYNCS ASYNC id 823 INVNO 1
READ THREADID 2 VARCLASS GLOBAL ADDRESS 0x60607c VARNAME a VARID c:@a FUNCNAME _Z5task1i SYNCS ASYNC id 824 INVNO 1
WRITE THREADID 2 VARCLASS GLOBAL ADDRESS 0x60607c VARNAME a VARID c:@a FUNCNAME _Z5task1i SYNCS ASYNC id 825 INVNO 1
READ THREADID 2 VARCLASS LOCAL OFFSET 0x4 VARNAME i VARID c:mythread.h@152@F@task1#I#@i FUNCNAME _Z5task1i SYNCS ASYNC id 826 INVNO 1
READ THREADID 2 VARCLASS LOCAL OFFSET 0x4 VARNAME i VARID c:mythread.h@152@F@task1#I#@i FUNCNAME _Z5task1i SYNCS ASYNC id 827 INVNO 1
READ THREADID 2 VARCLASS LOCAL OFFSET 0x14 VARNAME x VARID c:mythread.h@138@F@task1#I#@x FUNCNAME _Z5task1i SYNCS ASYNC id 828 INVNO 1
READ THREADID 2 VARCLASS GLOBAL ADDRESS 0x60607c VARNAME a VARID c:@a FUNCNAME _Z5task1i SYNCS ASYNC id 829 INVNO 1
WRITE THREADID 2 VARCLASS GLOBAL ADDRESS 0x60607c VARNAME a VARID c:@a FUNCNAME _Z5task1i SYNCS ASYNC id 830 INVNO 1
READ THREADID 2 VARCLASS LOCAL OFFSET 0x4 VARNAME i VARID c:mythread.h@152@F@task1#I#@i FUNCNAME _Z5task1i SYNCS ASYNC id 831 INVNO 1
READ THREADID 2 VARCLASS LOCAL OFFSET 0x4 VARNAME i VARID c:mythread.h@152@F@task1#I#@i FUNCNAME _Z5task1i SYNCS ASYNC id 832 INVNO 1
READ THREADID 2 VARCLASS LOCAL OFFSET 0x14 VARNAME x VARID c:mythread.h@138@F@task1#I#@x FUNCNAME _Z5task1i SYNCS ASYNC id 833 INVNO 1
READ THREADID 2 VARCLASS GLOBAL ADDRESS 0x60607c VARNAME a VARID c:@a FUNCNAME _Z5task1i SYNCS ASYNC id 834 INVNO 1
WRITE THREADID 2 VARCLASS GLOBAL ADDRESS 0x60607c VARNAME a VARID c:@a FUNCNAME _Z5task1i SYNCS ASYNC id 835 INVNO 1
READ THREADID 2 VARCLASS LOCAL OFFSET 0x4 VARNAME i VARID c:mythread.h@152@F@task1#I#@i FUNCNAME _Z5task1i SYNCS ASYNC id 836 INVNO 1
READ THREADID 2 VARCLASS LOCAL OFFSET 0x4 VARNAME i VARID c:mythread.h@152@F@task1#I#@i FUNCNAME _Z5task1i SYNCS ASYNC id 837 INVNO 1
READ THREADID 2 VARCLASS LOCAL OFFSET 0x14 VARNAME x VARID c:mythread.h@138@F@task1#I#@x FUNCNAME _Z5task1i SYNCS ASYNC id 838 INVNO 1
READ THREADID 2 VARCLASS GLOBAL ADDRESS 0x60607c VARNAME a VARID c:@a FUNCNAME _Z5task1i SYNCS ASYNC id 839 INVNO 1
WRITE THREADID 2 VARCLASS GLOBAL ADDRESS 0x60607c VARNAME a VARID c:@a FUNCNAME _Z5task1i SYNCS ASYNC id 840 INVNO 1
READ THREADID 2 VARCLASS LOCAL OFFSET 0x4 VARNAME i VARID c:mythread.h@152@F@task1#I#@i FUNCNAME _Z5task1i SYNCS ASYNC id 841 INVNO 1
READ THREADID 2 VARCLASS LOCAL OFFSET 0x4 VARNAME i VARID c:mythread.h@152@F@task1#I#@i FUNCNAME _Z5task1i SYNCS ASYNC id 842 INVNO 1
READ THREADID 2 VARCLASS LOCAL OFFSET 0x14 VARNAME x VARID c:mythread.h@138@F@task1#I#@x FUNCNAME _Z5task1i SYNCS ASYNC id 843 INVNO 1
READ THREADID 2 VARCLASS GLOBAL ADDRESS 0x60607c VARNAME a VARID c:@a FUNCNAME _Z5task1i SYNCS ASYNC id 844 INVNO 1
WRITE THREADID 2 VARCLASS GLOBAL ADDRESS 0x60607c VARNAME a VARID c:@a FUNCNAME _Z5task1i SYNCS ASYNC id 845 INVNO 1
READ THREADID 2 VARCLASS LOCAL OFFSET 0x4 VARNAME i VARID c:mythread.h@152@F@task1#I#@i FUNCNAME _Z5task1i SYNCS ASYNC id 846 INVNO 1
READ THREADID 2 VARCLASS LOCAL OFFSET 0x4 VARNAME i VARID c:mythread.h@152@F@task1#I#@i FUNCNAME _Z5task1i SYNCS ASYNC id 847 INVNO 1
READ THREADID 2 VARCLASS LOCAL OFFSET 0x14 VARNAME x VARID c:mythread.h@138@F@task1#I#@x FUNCNAME _Z5task1i SYNCS ASYNC id 848 INVNO 1
READ THREADID 2 VARCLASS GLOBAL ADDRESS 0x60607c VARNAME a VARID c:@a FUNCNAME _Z5task1i SYNCS ASYNC id 849 INVNO 1
WRITE THREADID 2 VARCLASS GLOBAL ADDRESS 0x60607c VARNAME a VARID c:@a FUNCNAME _Z5task1i SYNCS ASYNC id 850 INVNO 1
READ THREADID 2 VARCLASS LOCAL OFFSET 0x4 VARNAME i VARID c:mythread.h@152@F@task1#I#@i FUNCNAME _Z5task1i SYNCS ASYNC id 851 INVNO 1
READ THREADID 2 VARCLASS LOCAL OFFSET 0x4 VARNAME i VARID c:mythread.h@152@F@task1#I#@i FUNCNAME _Z5task1i SYNCS ASYNC id 852 INVNO 1
READ THREADID 2 VARCLASS LOCAL OFFSET 0x14 VARNAME x VARID c:mythread.h@138@F@task1#I#@x FUNCNAME _Z5task1i SYNCS ASYNC id 853 INVNO 1
READ THREADID 2 VARCLASS GLOBAL ADDRESS 0x60607c VARNAME a VARID c:@a FUNCNAME _Z5task1i SYNCS ASYNC id 854 INVNO 1
WRITE THREADID 2 VARCLASS GLOBAL ADDRESS 0x60607c VARNAME a VARID c:@a FUNCNAME _Z5task1i SYNCS ASYNC id 855 INVNO 1
READ THREADID 2 VARCLASS LOCAL OFFSET 0x4 VARNAME i VARID c:mythread.h@152@F@task1#I#@i FUNCNAME _Z5task1i SYNCS ASYNC id 856 INVNO 1
READ THREADID 2 VARCLASS LOCAL OFFSET 0x4 VARNAME i VARID c:mythread.h@152@F@task1#I#@i FUNCNAME _Z5task1i SYNCS ASYNC id 857 INVNO 1
READ THREADID 2 VARCLASS LOCAL OFFSET 0x14 VARNAME x VARID c:mythread.h@138@F@task1#I#@x FUNCNAME _Z5task1i SYNCS ASYNC id 858 INVNO 1
READ THREADID 2 VARCLASS GLOBAL ADDRESS 0x60607c VARNAME a VARID c:@a FUNCNAME _Z5task1i SYNCS ASYNC id 859 INVNO 1
WRITE THREADID 2 VARCLASS GLOBAL ADDRESS 0x60607c VARNAME a VARID c:@a FUNCNAME _Z5task1i SYNCS ASYNC id 860 INVNO 1
READ THREADID 2 VARCLASS LOCAL OFFSET 0x4 VARNAME i VARID c:mythread.h@152@F@task1#I#@i FUNCNAME _Z5task1i SYNCS ASYNC id 861 INVNO 1
READ THREADID 2 VARCLASS LOCAL OFFSET 0x4 VARNAME i VARID c:mythread.h@152@F@task1#I#@i FUNCNAME _Z5task1i SYNCS ASYNC id 862 INVNO 1
READ THREADID 2 VARCLASS LOCAL OFFSET 0x14 VARNAME x VARID c:mythread.h@138@F@task1#I#@x FUNCNAME _Z5task1i SYNCS ASYNC id 863 INVNO 1
READ THREADID 2 VARCLASS GLOBAL ADDRESS 0x60607c VARNAME a VARID c:@a FUNCNAME _Z5task1i SYNCS ASYNC id 864 INVNO 1
WRITE THREADID 2 VARCLASS GLOBAL ADDRESS 0x60607c VARNAME a VARID c:@a FUNCNAME _Z5task1i SYNCS ASYNC id 865 INVNO 1
READ THREADID 2 VARCLASS LOCAL OFFSET 0x4 VARNAME i VARID c:mythread.h@152@F@task1#I#@i FUNCNAME _Z5task1i SYNCS ASYNC id 866 INVNO 1
READ THREADID 2 VARCLASS LOCAL OFFSET 0x4 VARNAME i VARID c:mythread.h@152@F@task1#I#@i FUNCNAME _Z5task1i SYNCS ASYNC id 867 INVNO 1
READ THREADID 2 VARCLASS LOCAL OFFSET 0x14 VARNAME x VARID c:mythread.h@138@F@task1#I#@x FUNCNAME _Z5task1i SYNCS ASYNC id 868 INVNO 1
READ THREADID 2 VARCLASS GLOBAL ADDRESS 0x60607c VARNAME a VARID c:@a FUNCNAME _Z5task1i SYNCS ASYNC id 869 INVNO 1
WRITE THREADID 2 VARCLASS GLOBAL ADDRESS 0x60607c VARNAME a VARID c:@a FUNCNAME _Z5task1i SYNCS ASYNC id 870 INVNO 1
READ THREADID 2 VARCLASS LOCAL OFFSET 0x4 VARNAME i VARID c:mythread.h@152@F@task1#I#@i FUNCNAME _Z5task1i SYNCS ASYNC id 871 INVNO 1
READ THREADID 2 VARCLASS LOCAL OFFSET 0x4 VARNAME i VARID c:mythread.h@152@F@task1#I#@i FUNCNAME _Z5task1i SYNCS ASYNC id 872 INVNO 1
READ THREADID 2 VARCLASS LOCAL OFFSET 0x14 VARNAME x VARID c:mythread.h@138@F@task1#I#@x FUNCNAME _Z5task1i SYNCS ASYNC id 873 INVNO 1
READ THREADID 2 VARCLASS GLOBAL ADDRESS 0x60607c VARNAME a VARID c:@a FUNCNAME _Z5task1i SYNCS ASYNC id 874 INVNO 1
WRITE THREADID 2 VARCLASS GLOBAL ADDRESS 0x60607c VARNAME a VARID c:@a FUNCNAME _Z5task1i SYNCS ASYNC id 875 INVNO 1
READ THREADID 2 VARCLASS LOCAL OFFSET 0x4 VARNAME i VARID c:mythread.h@152@F@task1#I#@i FUNCNAME _Z5task1i SYNCS ASYNC id 876 INVNO 1
READ THREADID 2 VARCLASS LOCAL OFFSET 0x4 VARNAME i VARID c:mythread.h@152@F@task1#I#@i FUNCNAME _Z5task1i SYNCS ASYNC id 877 INVNO 1
READ THREADID 2 VARCLASS LOCAL OFFSET 0x14 VARNAME x VARID c:mythread.h@138@F@task1#I#@x FUNCNAME _Z5task1i SYNCS ASYNC id 878 INVNO 1
READ THREADID 2 VARCLASS GLOBAL ADDRESS 0x60607c VARNAME a VARID c:@a FUNCNAME _Z5task1i SYNCS ASYNC id 879 INVNO 1
WRITE THREADID 2 VARCLASS GLOBAL ADDRESS 0x60607c VARNAME a VARID c:@a FUNCNAME _Z5task1i SYNCS ASYNC id 880 INVNO 1
READ THREADID 2 VARCLASS LOCAL OFFSET 0x4 VARNAME i VARID c:mythread.h@152@F@task1#I#@i FUNCNAME _Z5task1i SYNCS ASYNC id 881 INVNO 1
READ THREADID 2 VARCLASS LOCAL OFFSET 0x4 VARNAME i VARID c:mythread.h@152@F@task1#I#@i FUNCNAME _Z5task1i SYNCS ASYNC id 882 INVNO 1
READ THREADID 2 VARCLASS LOCAL OFFSET 0x14 VARNAME x VARID c:mythread.h@138@F@task1#I#@x FUNCNAME _Z5task1i SYNCS ASYNC id 883 INVNO 1
READ THREADID 2 VARCLASS GLOBAL ADDRESS 0x60607c VARNAME a VARID c:@a FUNCNAME _Z5task1i SYNCS ASYNC id 884 INVNO 1
WRITE THREADID 2 VARCLASS GLOBAL ADDRESS 0x60607c VARNAME a VARID c:@a FUNCNAME _Z5task1i SYNCS ASYNC id 885 INVNO 1
READ THREADID 2 VARCLASS LOCAL OFFSET 0x4 VARNAME i VARID c:mythread.h@152@F@task1#I#@i FUNCNAME _Z5task1i SYNCS ASYNC id 886 INVNO 1
READ THREADID 2 VARCLASS LOCAL OFFSET 0x4 VARNAME i VARID c:mythread.h@152@F@task1#I#@i FUNCNAME _Z5task1i SYNCS ASYNC id 887 INVNO 1
READ THREADID 2 VARCLASS LOCAL OFFSET 0x14 VARNAME x VARID c:mythread.h@138@F@task1#I#@x FUNCNAME _Z5task1i SYNCS ASYNC id 888 INVNO 1
READ THREADID 2 VARCLASS GLOBAL ADDRESS 0x60607c VARNAME a VARID c:@a FUNCNAME _Z5task1i SYNCS ASYNC id 889 INVNO 1
WRITE THREADID 2 VARCLASS GLOBAL ADDRESS 0x60607c VARNAME a VARID c:@a FUNCNAME _Z5task1i SYNCS ASYNC id 890 INVNO 1
READ THREADID 2 VARCLASS LOCAL OFFSET 0x4 VARNAME i VARID c:mythread.h@152@F@task1#I#@i FUNCNAME _Z5task1i SYNCS ASYNC id 891 INVNO 1
READ THREADID 2 VARCLASS LOCAL OFFSET 0x4 VARNAME i VARID c:mythread.h@152@F@task1#I#@i FUNCNAME _Z5task1i SYNCS ASYNC id 892 INVNO 1
READ THREADID 2 VARCLASS LOCAL OFFSET 0x14 VARNAME x VARID c:mythread.h@138@F@task1#I#@x FUNCNAME _Z5task1i SYNCS ASYNC id 893 INVNO 1
READ THREADID 2 VARCLASS GLOBAL ADDRESS 0x60607c VARNAME a VARID c:@a FUNCNAME _Z5task1i SYNCS ASYNC id 894 INVNO 1
WRITE THREADID 2 VARCLASS GLOBAL ADDRESS 0x60607c VARNAME a VARID c:@a FUNCNAME _Z5task1i SYNCS ASYNC id 895 INVNO 1
READ THREADID 2 VARCLASS LOCAL OFFSET 0x4 VARNAME i VARID c:mythread.h@152@F@task1#I#@i FUNCNAME _Z5task1i SYNCS ASYNC id 896 INVNO 1
READ THREADID 2 VARCLASS LOCAL OFFSET 0x4 VARNAME i VARID c:mythread.h@152@F@task1#I#@i FUNCNAME _Z5task1i SYNCS ASYNC id 897 INVNO 1
READ THREADID 2 VARCLASS LOCAL OFFSET 0x14 VARNAME x VARID c:mythread.h@138@F@task1#I#@x FUNCNAME _Z5task1i SYNCS ASYNC id 898 INVNO 1
READ THREADID 2 VARCLASS GLOBAL ADDRESS 0x60607c VARNAME a VARID c:@a FUNCNAME _Z5task1i SYNCS ASYNC id 899 INVNO 1
WRITE THREADID 2 VARCLASS GLOBAL ADDRESS 0x60607c VARNAME a VARID c:@a FUNCNAME _Z5task1i SYNCS ASYNC id 900 INVNO 1
READ THREADID 2 VARCLASS LOCAL OFFSET 0x4 VARNAME i VARID c:mythread.h@152@F@task1#I#@i FUNCNAME _Z5task1i SYNCS ASYNC id 901 INVNO 1
READ THREADID 2 VARCLASS LOCAL OFFSET 0x4 VARNAME i VARID c:mythread.h@152@F@task1#I#@i FUNCNAME _Z5task1i SYNCS ASYNC id 902 INVNO 1
READ THREADID 2 VARCLASS LOCAL OFFSET 0x14 VARNAME x VARID c:mythread.h@138@F@task1#I#@x FUNCNAME _Z5task1i SYNCS ASYNC id 903 INVNO 1
READ THREADID 2 VARCLASS GLOBAL ADDRESS 0x60607c VARNAME a VARID c:@a FUNCNAME _Z5task1i SYNCS ASYNC id 904 INVNO 1
WRITE THREADID 2 VARCLASS GLOBAL ADDRESS 0x60607c VARNAME a VARID c:@a FUNCNAME _Z5task1i SYNCS ASYNC id 905 INVNO 1
READ THREADID 2 VARCLASS LOCAL OFFSET 0x4 VARNAME i VARID c:mythread.h@152@F@task1#I#@i FUNCNAME _Z5task1i SYNCS ASYNC id 906 INVNO 1
READ THREADID 2 VARCLASS LOCAL OFFSET 0x4 VARNAME i VARID c:mythread.h@152@F@task1#I#@i FUNCNAME _Z5task1i SYNCS ASYNC id 907 INVNO 1
READ THREADID 2 VARCLASS LOCAL OFFSET 0x14 VARNAME x VARID c:mythread.h@138@F@task1#I#@x FUNCNAME _Z5task1i SYNCS ASYNC id 908 INVNO 1
READ THREADID 2 VARCLASS GLOBAL ADDRESS 0x60607c VARNAME a VARID c:@a FUNCNAME _Z5task1i SYNCS ASYNC id 909 INVNO 1
WRITE THREADID 2 VARCLASS GLOBAL ADDRESS 0x60607c VARNAME a VARID c:@a FUNCNAME _Z5task1i SYNCS ASYNC id 910 INVNO 1
READ THREADID 2 VARCLASS LOCAL OFFSET 0x4 VARNAME i VARID c:mythread.h@152@F@task1#I#@i FUNCNAME _Z5task1i SYNCS ASYNC id 911 INVNO 1
READ THREADID 2 VARCLASS LOCAL OFFSET 0x4 VARNAME i VARID c:mythread.h@152@F@task1#I#@i FUNCNAME _Z5task1i SYNCS ASYNC id 912 INVNO 1
READ THREADID 2 VARCLASS LOCAL OFFSET 0x14 VARNAME x VARID c:mythread.h@138@F@task1#I#@x FUNCNAME _Z5task1i SYNCS ASYNC id 913 INVNO 1
READ THREADID 2 VARCLASS GLOBAL ADDRESS 0x60607c VARNAME a VARID c:@a FUNCNAME _Z5task1i SYNCS ASYNC id 914 INVNO 1
WRITE THREADID 2 VARCLASS GLOBAL ADDRESS 0x60607c VARNAME a VARID c:@a FUNCNAME _Z5task1i SYNCS ASYNC id 915 INVNO 1
READ THREADID 2 VARCLASS LOCAL OFFSET 0x4 VARNAME i VARID c:mythread.h@152@F@task1#I#@i FUNCNAME _Z5task1i SYNCS ASYNC id 916 INVNO 1
READ THREADID 2 VARCLASS LOCAL OFFSET 0x4 VARNAME i VARID c:mythread.h@152@F@task1#I#@i FUNCNAME _Z5task1i SYNCS ASYNC id 917 INVNO 1
READ THREADID 2 VARCLASS LOCAL OFFSET 0x14 VARNAME x VARID c:mythread.h@138@F@task1#I#@x FUNCNAME _Z5task1i SYNCS ASYNC id 918 INVNO 1
READ THREADID 2 VARCLASS GLOBAL ADDRESS 0x60607c VARNAME a VARID c:@a FUNCNAME _Z5task1i SYNCS ASYNC id 919 INVNO 1
WRITE THREADID 2 VARCLASS GLOBAL ADDRESS 0x60607c VARNAME a VARID c:@a FUNCNAME _Z5task1i SYNCS ASYNC id 920 INVNO 1
READ THREADID 2 VARCLASS LOCAL OFFSET 0x4 VARNAME i VARID c:mythread.h@152@F@task1#I#@i FUNCNAME _Z5task1i SYNCS ASYNC id 921 INVNO 1
READ THREADID 2 VARCLASS LOCAL OFFSET 0x4 VARNAME i VARID c:mythread.h@152@F@task1#I#@i FUNCNAME _Z5task1i SYNCS ASYNC id 922 INVNO 1
READ THREADID 2 VARCLASS LOCAL OFFSET 0x14 VARNAME x VARID c:mythread.h@138@F@task1#I#@x FUNCNAME _Z5task1i SYNCS ASYNC id 923 INVNO 1
READ THREADID 2 VARCLASS GLOBAL ADDRESS 0x60607c VARNAME a VARID c:@a FUNCNAME _Z5task1i SYNCS ASYNC id 924 INVNO 1
WRITE THREADID 2 VARCLASS GLOBAL ADDRESS 0x60607c VARNAME a VARID c:@a FUNCNAME _Z5task1i SYNCS ASYNC id 925 INVNO 1
READ THREADID 2 VARCLASS LOCAL OFFSET 0x4 VARNAME i VARID c:mythread.h@152@F@task1#I#@i FUNCNAME _Z5task1i SYNCS ASYNC id 926 INVNO 1
READ THREADID 2 VARCLASS LOCAL OFFSET 0x4 VARNAME i VARID c:mythread.h@152@F@task1#I#@i FUNCNAME _Z5task1i SYNCS ASYNC id 927 INVNO 1
READ THREADID 2 VARCLASS LOCAL OFFSET 0x14 VARNAME x VARID c:mythread.h@138@F@task1#I#@x FUNCNAME _Z5task1i SYNCS ASYNC id 928 INVNO 1
READ THREADID 2 VARCLASS GLOBAL ADDRESS 0x60607c VARNAME a VARID c:@a FUNCNAME _Z5task1i SYNCS ASYNC id 929 INVNO 1
WRITE THREADID 2 VARCLASS GLOBAL ADDRESS 0x60607c VARNAME a VARID c:@a FUNCNAME _Z5task1i SYNCS ASYNC id 930 INVNO 1
READ THREADID 2 VARCLASS LOCAL OFFSET 0x4 VARNAME i VARID c:mythread.h@152@F@task1#I#@i FUNCNAME _Z5task1i SYNCS ASYNC id 931 INVNO 1
READ THREADID 2 VARCLASS LOCAL OFFSET 0x4 VARNAME i VARID c:mythread.h@152@F@task1#I#@i FUNCNAME _Z5task1i SYNCS ASYNC id 932 INVNO 1
READ THREADID 2 VARCLASS LOCAL OFFSET 0x14 VARNAME x VARID c:mythread.h@138@F@task1#I#@x FUNCNAME _Z5task1i SYNCS ASYNC id 933 INVNO 1
READ THREADID 2 VARCLASS GLOBAL ADDRESS 0x60607c VARNAME a VARID c:@a FUNCNAME _Z5task1i SYNCS ASYNC id 934 INVNO 1
WRITE THREADID 2 VARCLASS GLOBAL ADDRESS 0x60607c VARNAME a VARID c:@a FUNCNAME _Z5task1i SYNCS ASYNC id 935 INVNO 1
READ THREADID 2 VARCLASS LOCAL OFFSET 0x4 VARNAME i VARID c:mythread.h@152@F@task1#I#@i FUNCNAME _Z5task1i SYNCS ASYNC id 936 INVNO 1
READ THREADID 2 VARCLASS LOCAL OFFSET 0x4 VARNAME i VARID c:mythread.h@152@F@task1#I#@i FUNCNAME _Z5task1i SYNCS ASYNC id 937 INVNO 1
READ THREADID 2 VARCLASS LOCAL OFFSET 0x14 VARNAME x VARID c:mythread.h@138@F@task1#I#@x FUNCNAME _Z5task1i SYNCS ASYNC id 938 INVNO 1
READ THREADID 2 VARCLASS GLOBAL ADDRESS 0x60607c VARNAME a VARID c:@a FUNCNAME _Z5task1i SYNCS ASYNC id 939 INVNO 1
WRITE THREADID 2 VARCLASS GLOBAL ADDRESS 0x60607c VARNAME a VARID c:@a FUNCNAME _Z5task1i SYNCS ASYNC id 940 INVNO 1
READ THREADID 2 VARCLASS LOCAL OFFSET 0x4 VARNAME i VARID c:mythread.h@152@F@task1#I#@i FUNCNAME _Z5task1i SYNCS ASYNC id 941 INVNO 1
READ THREADID 2 VARCLASS LOCAL OFFSET 0x4 VARNAME i VARID c:mythread.h@152@F@task1#I#@i FUNCNAME _Z5task1i SYNCS ASYNC id 942 INVNO 1
READ THREADID 2 VARCLASS LOCAL OFFSET 0x14 VARNAME x VARID c:mythread.h@138@F@task1#I#@x FUNCNAME _Z5task1i SYNCS ASYNC id 943 INVNO 1
READ THREADID 2 VARCLASS GLOBAL ADDRESS 0x60607c VARNAME a VARID c:@a FUNCNAME _Z5task1i SYNCS ASYNC id 944 INVNO 1
WRITE THREADID 2 VARCLASS GLOBAL ADDRESS 0x60607c VARNAME a VARID c:@a FUNCNAME _Z5task1i SYNCS ASYNC id 945 INVNO 1
READ THREADID 2 VARCLASS LOCAL OFFSET 0x4 VARNAME i VARID c:mythread.h@152@F@task1#I#@i FUNCNAME _Z5task1i SYNCS ASYNC id 946 INVNO 1
READ THREADID 2 VARCLASS LOCAL OFFSET 0x4 VARNAME i VARID c:mythread.h@152@F@task1#I#@i FUNCNAME _Z5task1i SYNCS ASYNC id 947 INVNO 1
READ THREADID 2 VARCLASS LOCAL OFFSET 0x14 VARNAME x VARID c:mythread.h@138@F@task1#I#@x FUNCNAME _Z5task1i SYNCS ASYNC id 948 INVNO 1
READ THREADID 2 VARCLASS GLOBAL ADDRESS 0x60607c VARNAME a VARID c:@a FUNCNAME _Z5task1i SYNCS ASYNC id 949 INVNO 1
WRITE THREADID 2 VARCLASS GLOBAL ADDRESS 0x60607c VARNAME a VARID c:@a FUNCNAME _Z5task1i SYNCS ASYNC id 950 INVNO 1
READ THREADID 2 VARCLASS LOCAL OFFSET 0x4 VARNAME i VARID c:mythread.h@152@F@task1#I#@i FUNCNAME _Z5task1i SYNCS ASYNC id 951 INVNO 1
READ THREADID 2 VARCLASS LOCAL OFFSET 0x4 VARNAME i VARID c:mythread.h@152@F@task1#I#@i FUNCNAME _Z5task1i SYNCS ASYNC id 952 INVNO 1
READ THREADID 2 VARCLASS LOCAL OFFSET 0x14 VARNAME x VARID c:mythread.h@138@F@task1#I#@x FUNCNAME _Z5task1i SYNCS ASYNC id 953 INVNO 1
READ THREADID 2 VARCLASS GLOBAL ADDRESS 0x60607c VARNAME a VARID c:@a FUNCNAME _Z5task1i SYNCS ASYNC id 954 INVNO 1
WRITE THREADID 2 VARCLASS GLOBAL ADDRESS 0x60607c VARNAME a VARID c:@a FUNCNAME _Z5task1i SYNCS ASYNC id 955 INVNO 1
READ THREADID 2 VARCLASS LOCAL OFFSET 0x4 VARNAME i VARID c:mythread.h@152@F@task1#I#@i FUNCNAME _Z5task1i SYNCS ASYNC id 956 INVNO 1
READ THREADID 2 VARCLASS LOCAL OFFSET 0x4 VARNAME i VARID c:mythread.h@152@F@task1#I#@i FUNCNAME _Z5task1i SYNCS ASYNC id 957 INVNO 1
READ THREADID 2 VARCLASS LOCAL OFFSET 0x14 VARNAME x VARID c:mythread.h@138@F@task1#I#@x FUNCNAME _Z5task1i SYNCS ASYNC id 958 INVNO 1
READ THREADID 2 VARCLASS GLOBAL ADDRESS 0x60607c VARNAME a VARID c:@a FUNCNAME _Z5task1i SYNCS ASYNC id 959 INVNO 1
WRITE THREADID 2 VARCLASS GLOBAL ADDRESS 0x60607c VARNAME a VARID c:@a FUNCNAME _Z5task1i SYNCS ASYNC id 960 INVNO 1
READ THREADID 2 VARCLASS LOCAL OFFSET 0x4 VARNAME i VARID c:mythread.h@152@F@task1#I#@i FUNCNAME _Z5task1i SYNCS ASYNC id 961 INVNO 1
READ THREADID 2 VARCLASS LOCAL OFFSET 0x4 VARNAME i VARID c:mythread.h@152@F@task1#I#@i FUNCNAME _Z5task1i SYNCS ASYNC id 962 INVNO 1
READ THREADID 2 VARCLASS LOCAL OFFSET 0x14 VARNAME x VARID c:mythread.h@138@F@task1#I#@x FUNCNAME _Z5task1i SYNCS ASYNC id 963 INVNO 1
READ THREADID 2 VARCLASS GLOBAL ADDRESS 0x60607c VARNAME a VARID c:@a FUNCNAME _Z5task1i SYNCS ASYNC id 964 INVNO 1
WRITE THREADID 2 VARCLASS GLOBAL ADDRESS 0x60607c VARNAME a VARID c:@a FUNCNAME _Z5task1i SYNCS ASYNC id 965 INVNO 1
READ THREADID 2 VARCLASS LOCAL OFFSET 0x4 VARNAME i VARID c:mythread.h@152@F@task1#I#@i FUNCNAME _Z5task1i SYNCS ASYNC id 966 INVNO 1
READ THREADID 2 VARCLASS LOCAL OFFSET 0x4 VARNAME i VARID c:mythread.h@152@F@task1#I#@i FUNCNAME _Z5task1i SYNCS ASYNC id 967 INVNO 1
READ THREADID 2 VARCLASS LOCAL OFFSET 0x14 VARNAME x VARID c:mythread.h@138@F@task1#I#@x FUNCNAME _Z5task1i SYNCS ASYNC id 968 INVNO 1
READ THREADID 2 VARCLASS GLOBAL ADDRESS 0x60607c VARNAME a VARID c:@a FUNCNAME _Z5task1i SYNCS ASYNC id 969 INVNO 1
WRITE THREADID 2 VARCLASS GLOBAL ADDRESS 0x60607c VARNAME a VARID c:@a FUNCNAME _Z5task1i SYNCS ASYNC id 970 INVNO 1
READ THREADID 2 VARCLASS LOCAL OFFSET 0x4 VARNAME i VARID c:mythread.h@152@F@task1#I#@i FUNCNAME _Z5task1i SYNCS ASYNC id 971 INVNO 1
READ THREADID 2 VARCLASS LOCAL OFFSET 0x4 VARNAME i VARID c:mythread.h@152@F@task1#I#@i FUNCNAME _Z5task1i SYNCS ASYNC id 972 INVNO 1
READ THREADID 2 VARCLASS LOCAL OFFSET 0x14 VARNAME x VARID c:mythread.h@138@F@task1#I#@x FUNCNAME _Z5task1i SYNCS ASYNC id 973 INVNO 1
READ THREADID 2 VARCLASS GLOBAL ADDRESS 0x60607c VARNAME a VARID c:@a FUNCNAME _Z5task1i SYNCS ASYNC id 974 INVNO 1
WRITE THREADID 2 VARCLASS GLOBAL ADDRESS 0x60607c VARNAME a VARID c:@a FUNCNAME _Z5task1i SYNCS ASYNC id 975 INVNO 1
READ THREADID 2 VARCLASS LOCAL OFFSET 0x4 VARNAME i VARID c:mythread.h@152@F@task1#I#@i FUNCNAME _Z5task1i SYNCS ASYNC id 976 INVNO 1
READ THREADID 2 VARCLASS LOCAL OFFSET 0x4 VARNAME i VARID c:mythread.h@152@F@task1#I#@i FUNCNAME _Z5task1i SYNCS ASYNC id 977 INVNO 1
READ THREADID 2 VARCLASS LOCAL OFFSET 0x14 VARNAME x VARID c:mythread.h@138@F@task1#I#@x FUNCNAME _Z5task1i SYNCS ASYNC id 978 INVNO 1
READ THREADID 2 VARCLASS GLOBAL ADDRESS 0x60607c VARNAME a VARID c:@a FUNCNAME _Z5task1i SYNCS ASYNC id 979 INVNO 1
WRITE THREADID 2 VARCLASS GLOBAL ADDRESS 0x60607c VARNAME a VARID c:@a FUNCNAME _Z5task1i SYNCS ASYNC id 980 INVNO 1
READ THREADID 2 VARCLASS LOCAL OFFSET 0x4 VARNAME i VARID c:mythread.h@152@F@task1#I#@i FUNCNAME _Z5task1i SYNCS ASYNC id 981 INVNO 1
READ THREADID 2 VARCLASS LOCAL OFFSET 0x4 VARNAME i VARID c:mythread.h@152@F@task1#I#@i FUNCNAME _Z5task1i SYNCS ASYNC id 982 INVNO 1
READ THREADID 2 VARCLASS LOCAL OFFSET 0x14 VARNAME x VARID c:mythread.h@138@F@task1#I#@x FUNCNAME _Z5task1i SYNCS ASYNC id 983 INVNO 1
READ THREADID 2 VARCLASS GLOBAL ADDRESS 0x60607c VARNAME a VARID c:@a FUNCNAME _Z5task1i SYNCS ASYNC id 984 INVNO 1
WRITE THREADID 2 VARCLASS GLOBAL ADDRESS 0x60607c VARNAME a VARID c:@a FUNCNAME _Z5task1i SYNCS ASYNC id 985 INVNO 1
READ THREADID 2 VARCLASS LOCAL OFFSET 0x4 VARNAME i VARID c:mythread.h@152@F@task1#I#@i FUNCNAME _Z5task1i SYNCS ASYNC id 986 INVNO 1
READ THREADID 2 VARCLASS LOCAL OFFSET 0x4 VARNAME i VARID c:mythread.h@152@F@task1#I#@i FUNCNAME _Z5task1i SYNCS ASYNC id 987 INVNO 1
READ THREADID 2 VARCLASS LOCAL OFFSET 0x14 VARNAME x VARID c:mythread.h@138@F@task1#I#@x FUNCNAME _Z5task1i SYNCS ASYNC id 988 INVNO 1
READ THREADID 2 VARCLASS GLOBAL ADDRESS 0x60607c VARNAME a VARID c:@a FUNCNAME _Z5task1i SYNCS ASYNC id 989 INVNO 1
WRITE THREADID 2 VARCLASS GLOBAL ADDRESS 0x60607c VARNAME a VARID c:@a FUNCNAME _Z5task1i SYNCS ASYNC id 990 INVNO 1
READ THREADID 2 VARCLASS LOCAL OFFSET 0x4 VARNAME i VARID c:mythread.h@152@F@task1#I#@i FUNCNAME _Z5task1i SYNCS ASYNC id 991 INVNO 1
READ THREADID 2 VARCLASS LOCAL OFFSET 0x4 VARNAME i VARID c:mythread.h@152@F@task1#I#@i FUNCNAME _Z5task1i SYNCS ASYNC id 992 INVNO 1
READ THREADID 2 VARCLASS LOCAL OFFSET 0x14 VARNAME x VARID c:mythread.h@138@F@task1#I#@x FUNCNAME _Z5task1i SYNCS ASYNC id 993 INVNO 1
READ THREADID 2 VARCLASS GLOBAL ADDRESS 0x60607c VARNAME a VARID c:@a FUNCNAME _Z5task1i SYNCS ASYNC id 994 INVNO 1
WRITE THREADID 2 VARCLASS GLOBAL ADDRESS 0x60607c VARNAME a VARID c:@a FUNCNAME _Z5task1i SYNCS ASYNC id 995 INVNO 1
READ THREADID 2 VARCLASS LOCAL OFFSET 0x4 VARNAME i VARID c:mythread.h@152@F@task1#I#@i FUNCNAME _Z5task1i SYNCS ASYNC id 996 INVNO 1
READ THREADID 2 VARCLASS LOCAL OFFSET 0x4 VARNAME i VARID c:mythread.h@152@F@task1#I#@i FUNCNAME _Z5task1i SYNCS ASYNC id 997 INVNO 1
READ THREADID 2 VARCLASS LOCAL OFFSET 0x14 VARNAME x VARID c:mythread.h@138@F@task1#I#@x FUNCNAME _Z5task1i SYNCS ASYNC id 998 INVNO 1
READ THREADID 2 VARCLASS GLOBAL ADDRESS 0x60607c VARNAME a VARID c:@a FUNCNAME _Z5task1i SYNCS ASYNC id 999 INVNO 1
WRITE THREADID 2 VARCLASS GLOBAL ADDRESS 0x60607c VARNAME a VARID c:@a FUNCNAME _Z5task1i SYNCS ASYNC id 1000 INVNO 1
READ THREADID 2 VARCLASS LOCAL OFFSET 0x4 VARNAME i VARID c:mythread.h@152@F@task1#I#@i FUNCNAME _Z5task1i SYNCS ASYNC id 1001 INVNO 1
READ THREADID 2 VARCLASS LOCAL OFFSET 0x4 VARNAME i VARID c:mythread.h@152@F@task1#I#@i FUNCNAME _Z5task1i SYNCS ASYNC id 1002 INVNO 1
READ THREADID 2 VARCLASS LOCAL OFFSET 0x14 VARNAME x VARID c:mythread.h@138@F@task1#I#@x FUNCNAME _Z5task1i SYNCS ASYNC id 1003 INVNO 1
READ THREADID 2 VARCLASS GLOBAL ADDRESS 0x60607c VARNAME a VARID c:@a FUNCNAME _Z5task1i SYNCS ASYNC id 1004 INVNO 1
WRITE THREADID 2 VARCLASS GLOBAL ADDRESS 0x60607c VARNAME a VARID c:@a FUNCNAME _Z5task1i SYNCS ASYNC id 1005 INVNO 1
READ THREADID 2 VARCLASS LOCAL OFFSET 0x4 VARNAME i VARID c:mythread.h@152@F@task1#I#@i FUNCNAME _Z5task1i SYNCS ASYNC id 1006 INVNO 1
READ THREADID 2 VARCLASS LOCAL OFFSET 0x4 VARNAME i VARID c:mythread.h@152@F@task1#I#@i FUNCNAME _Z5task1i SYNCS ASYNC id 1007 INVNO 1
READ THREADID 2 VARCLASS LOCAL OFFSET 0x14 VARNAME x VARID c:mythread.h@138@F@task1#I#@x FUNCNAME _Z5task1i SYNCS ASYNC id 1008 INVNO 1
READ THREADID 2 VARCLASS GLOBAL ADDRESS 0x60607c VARNAME a VARID c:@a FUNCNAME _Z5task1i SYNCS ASYNC id 1009 INVNO 1
WRITE THREADID 2 VARCLASS GLOBAL ADDRESS 0x60607c VARNAME a VARID c:@a FUNCNAME _Z5task1i SYNCS ASYNC id 1010 INVNO 1
READ THREADID 2 VARCLASS LOCAL OFFSET 0x4 VARNAME i VARID c:mythread.h@152@F@task1#I#@i FUNCNAME _Z5task1i SYNCS ASYNC id 1011 INVNO 1
READ THREADID 2 VARCLASS LOCAL OFFSET 0x4 VARNAME i VARID c:mythread.h@152@F@task1#I#@i FUNCNAME _Z5task1i SYNCS ASYNC id 1012 INVNO 1
READ THREADID 2 VARCLASS LOCAL OFFSET 0x14 VARNAME x VARID c:mythread.h@138@F@task1#I#@x FUNCNAME _Z5task1i SYNCS ASYNC id 1013 INVNO 1
RETURN THREADID 2 FUNCNAME _Z5task1i id 1014 RETVAL void INVNO 1
RETURN THREADID 1 FUNCNAME _Z5task1i id 1015 RETVAL void INVNO 1
CALL THREADID 0 CALLERNAME main CALLEENAME _ZNSt6thread4joinEv@plt id 1016 ARGS NONE STATICCALL [	c:@N@std@S@thread@F@join# t2 . join ( )	] INVNO 1
WRITE THREADID 3 VARCLASS LOCAL OFFSET 0x14 VARNAME x VARID c:mythread.h@138@F@task1#I#@x FUNCNAME _Z5task1i SYNCS ASYNC id 1017 INVNO 1
WRITE THREADID 3 VARCLASS LOCAL OFFSET 0x4 VARNAME i VARID c:mythread.h@152@F@task1#I#@i FUNCNAME _Z5task1i SYNCS ASYNC id 1018 INVNO 1
READ THREADID 3 VARCLASS LOCAL OFFSET 0x4 VARNAME i VARID c:mythread.h@152@F@task1#I#@i FUNCNAME _Z5task1i SYNCS ASYNC id 1019 INVNO 1
READ THREADID 3 VARCLASS LOCAL OFFSET 0x14 VARNAME x VARID c:mythread.h@138@F@task1#I#@x FUNCNAME _Z5task1i SYNCS ASYNC id 1020 INVNO 1
READ THREADID 3 VARCLASS GLOBAL ADDRESS 0x60607c VARNAME a VARID c:@a FUNCNAME _Z5task1i SYNCS ASYNC id 1021 INVNO 1
WRITE THREADID 3 VARCLASS GLOBAL ADDRESS 0x60607c VARNAME a VARID c:@a FUNCNAME _Z5task1i SYNCS ASYNC id 1022 INVNO 1
READ THREADID 3 VARCLASS LOCAL OFFSET 0x4 VARNAME i VARID c:mythread.h@152@F@task1#I#@i FUNCNAME _Z5task1i SYNCS ASYNC id 1023 INVNO 1
READ THREADID 3 VARCLASS LOCAL OFFSET 0x4 VARNAME i VARID c:mythread.h@152@F@task1#I#@i FUNCNAME _Z5task1i SYNCS ASYNC id 1024 INVNO 1
READ THREADID 3 VARCLASS LOCAL OFFSET 0x14 VARNAME x VARID c:mythread.h@138@F@task1#I#@x FUNCNAME _Z5task1i SYNCS ASYNC id 1025 INVNO 1
READ THREADID 3 VARCLASS GLOBAL ADDRESS 0x60607c VARNAME a VARID c:@a FUNCNAME _Z5task1i SYNCS ASYNC id 1026 INVNO 1
WRITE THREADID 3 VARCLASS GLOBAL ADDRESS 0x60607c VARNAME a VARID c:@a FUNCNAME _Z5task1i SYNCS ASYNC id 1027 INVNO 1
READ THREADID 3 VARCLASS LOCAL OFFSET 0x4 VARNAME i VARID c:mythread.h@152@F@task1#I#@i FUNCNAME _Z5task1i SYNCS ASYNC id 1028 INVNO 1
READ THREADID 3 VARCLASS LOCAL OFFSET 0x4 VARNAME i VARID c:mythread.h@152@F@task1#I#@i FUNCNAME _Z5task1i SYNCS ASYNC id 1029 INVNO 1
READ THREADID 3 VARCLASS LOCAL OFFSET 0x14 VARNAME x VARID c:mythread.h@138@F@task1#I#@x FUNCNAME _Z5task1i SYNCS ASYNC id 1030 INVNO 1
READ THREADID 3 VARCLASS GLOBAL ADDRESS 0x60607c VARNAME a VARID c:@a FUNCNAME _Z5task1i SYNCS ASYNC id 1031 INVNO 1
WRITE THREADID 3 VARCLASS GLOBAL ADDRESS 0x60607c VARNAME a VARID c:@a FUNCNAME _Z5task1i SYNCS ASYNC id 1032 INVNO 1
READ THREADID 3 VARCLASS LOCAL OFFSET 0x4 VARNAME i VARID c:mythread.h@152@F@task1#I#@i FUNCNAME _Z5task1i SYNCS ASYNC id 1033 INVNO 1
READ THREADID 3 VARCLASS LOCAL OFFSET 0x4 VARNAME i VARID c:mythread.h@152@F@task1#I#@i FUNCNAME _Z5task1i SYNCS ASYNC id 1034 INVNO 1
READ THREADID 3 VARCLASS LOCAL OFFSET 0x14 VARNAME x VARID c:mythread.h@138@F@task1#I#@x FUNCNAME _Z5task1i SYNCS ASYNC id 1035 INVNO 1
READ THREADID 3 VARCLASS GLOBAL ADDRESS 0x60607c VARNAME a VARID c:@a FUNCNAME _Z5task1i SYNCS ASYNC id 1036 INVNO 1
WRITE THREADID 3 VARCLASS GLOBAL ADDRESS 0x60607c VARNAME a VARID c:@a FUNCNAME _Z5task1i SYNCS ASYNC id 1037 INVNO 1
READ THREADID 3 VARCLASS LOCAL OFFSET 0x4 VARNAME i VARID c:mythread.h@152@F@task1#I#@i FUNCNAME _Z5task1i SYNCS ASYNC id 1038 INVNO 1
READ THREADID 3 VARCLASS LOCAL OFFSET 0x4 VARNAME i VARID c:mythread.h@152@F@task1#I#@i FUNCNAME _Z5task1i SYNCS ASYNC id 1039 INVNO 1
READ THREADID 3 VARCLASS LOCAL OFFSET 0x14 VARNAME x VARID c:mythread.h@138@F@task1#I#@x FUNCNAME _Z5task1i SYNCS ASYNC id 1040 INVNO 1
READ THREADID 3 VARCLASS GLOBAL ADDRESS 0x60607c VARNAME a VARID c:@a FUNCNAME _Z5task1i SYNCS ASYNC id 1041 INVNO 1
WRITE THREADID 3 VARCLASS GLOBAL ADDRESS 0x60607c VARNAME a VARID c:@a FUNCNAME _Z5task1i SYNCS ASYNC id 1042 INVNO 1
READ THREADID 3 VARCLASS LOCAL OFFSET 0x4 VARNAME i VARID c:mythread.h@152@F@task1#I#@i FUNCNAME _Z5task1i SYNCS ASYNC id 1043 INVNO 1
READ THREADID 3 VARCLASS LOCAL OFFSET 0x4 VARNAME i VARID c:mythread.h@152@F@task1#I#@i FUNCNAME _Z5task1i SYNCS ASYNC id 1044 INVNO 1
READ THREADID 3 VARCLASS LOCAL OFFSET 0x14 VARNAME x VARID c:mythread.h@138@F@task1#I#@x FUNCNAME _Z5task1i SYNCS ASYNC id 1045 INVNO 1
READ THREADID 3 VARCLASS GLOBAL ADDRESS 0x60607c VARNAME a VARID c:@a FUNCNAME _Z5task1i SYNCS ASYNC id 1046 INVNO 1
WRITE THREADID 3 VARCLASS GLOBAL ADDRESS 0x60607c VARNAME a VARID c:@a FUNCNAME _Z5task1i SYNCS ASYNC id 1047 INVNO 1
READ THREADID 3 VARCLASS LOCAL OFFSET 0x4 VARNAME i VARID c:mythread.h@152@F@task1#I#@i FUNCNAME _Z5task1i SYNCS ASYNC id 1048 INVNO 1
READ THREADID 3 VARCLASS LOCAL OFFSET 0x4 VARNAME i VARID c:mythread.h@152@F@task1#I#@i FUNCNAME _Z5task1i SYNCS ASYNC id 1049 INVNO 1
READ THREADID 3 VARCLASS LOCAL OFFSET 0x14 VARNAME x VARID c:mythread.h@138@F@task1#I#@x FUNCNAME _Z5task1i SYNCS ASYNC id 1050 INVNO 1
READ THREADID 3 VARCLASS GLOBAL ADDRESS 0x60607c VARNAME a VARID c:@a FUNCNAME _Z5task1i SYNCS ASYNC id 1051 INVNO 1
WRITE THREADID 3 VARCLASS GLOBAL ADDRESS 0x60607c VARNAME a VARID c:@a FUNCNAME _Z5task1i SYNCS ASYNC id 1052 INVNO 1
READ THREADID 3 VARCLASS LOCAL OFFSET 0x4 VARNAME i VARID c:mythread.h@152@F@task1#I#@i FUNCNAME _Z5task1i SYNCS ASYNC id 1053 INVNO 1
READ THREADID 3 VARCLASS LOCAL OFFSET 0x4 VARNAME i VARID c:mythread.h@152@F@task1#I#@i FUNCNAME _Z5task1i SYNCS ASYNC id 1054 INVNO 1
READ THREADID 3 VARCLASS LOCAL OFFSET 0x14 VARNAME x VARID c:mythread.h@138@F@task1#I#@x FUNCNAME _Z5task1i SYNCS ASYNC id 1055 INVNO 1
READ THREADID 3 VARCLASS GLOBAL ADDRESS 0x60607c VARNAME a VARID c:@a FUNCNAME _Z5task1i SYNCS ASYNC id 1056 INVNO 1
WRITE THREADID 3 VARCLASS GLOBAL ADDRESS 0x60607c VARNAME a VARID c:@a FUNCNAME _Z5task1i SYNCS ASYNC id 1057 INVNO 1
READ THREADID 3 VARCLASS LOCAL OFFSET 0x4 VARNAME i VARID c:mythread.h@152@F@task1#I#@i FUNCNAME _Z5task1i SYNCS ASYNC id 1058 INVNO 1
READ THREADID 3 VARCLASS LOCAL OFFSET 0x4 VARNAME i VARID c:mythread.h@152@F@task1#I#@i FUNCNAME _Z5task1i SYNCS ASYNC id 1059 INVNO 1
READ THREADID 3 VARCLASS LOCAL OFFSET 0x14 VARNAME x VARID c:mythread.h@138@F@task1#I#@x FUNCNAME _Z5task1i SYNCS ASYNC id 1060 INVNO 1
READ THREADID 3 VARCLASS GLOBAL ADDRESS 0x60607c VARNAME a VARID c:@a FUNCNAME _Z5task1i SYNCS ASYNC id 1061 INVNO 1
WRITE THREADID 3 VARCLASS GLOBAL ADDRESS 0x60607c VARNAME a VARID c:@a FUNCNAME _Z5task1i SYNCS ASYNC id 1062 INVNO 1
READ THREADID 3 VARCLASS LOCAL OFFSET 0x4 VARNAME i VARID c:mythread.h@152@F@task1#I#@i FUNCNAME _Z5task1i SYNCS ASYNC id 1063 INVNO 1
READ THREADID 3 VARCLASS LOCAL OFFSET 0x4 VARNAME i VARID c:mythread.h@152@F@task1#I#@i FUNCNAME _Z5task1i SYNCS ASYNC id 1064 INVNO 1
READ THREADID 3 VARCLASS LOCAL OFFSET 0x14 VARNAME x VARID c:mythread.h@138@F@task1#I#@x FUNCNAME _Z5task1i SYNCS ASYNC id 1065 INVNO 1
READ THREADID 3 VARCLASS GLOBAL ADDRESS 0x60607c VARNAME a VARID c:@a FUNCNAME _Z5task1i SYNCS ASYNC id 1066 INVNO 1
WRITE THREADID 3 VARCLASS GLOBAL ADDRESS 0x60607c VARNAME a VARID c:@a FUNCNAME _Z5task1i SYNCS ASYNC id 1067 INVNO 1
READ THREADID 3 VARCLASS LOCAL OFFSET 0x4 VARNAME i VARID c:mythread.h@152@F@task1#I#@i FUNCNAME _Z5task1i SYNCS ASYNC id 1068 INVNO 1
READ THREADID 3 VARCLASS LOCAL OFFSET 0x4 VARNAME i VARID c:mythread.h@152@F@task1#I#@i FUNCNAME _Z5task1i SYNCS ASYNC id 1069 INVNO 1
READ THREADID 3 VARCLASS LOCAL OFFSET 0x14 VARNAME x VARID c:mythread.h@138@F@task1#I#@x FUNCNAME _Z5task1i SYNCS ASYNC id 1070 INVNO 1
READ THREADID 3 VARCLASS GLOBAL ADDRESS 0x60607c VARNAME a VARID c:@a FUNCNAME _Z5task1i SYNCS ASYNC id 1071 INVNO 1
WRITE THREADID 3 VARCLASS GLOBAL ADDRESS 0x60607c VARNAME a VARID c:@a FUNCNAME _Z5task1i SYNCS ASYNC id 1072 INVNO 1
READ THREADID 3 VARCLASS LOCAL OFFSET 0x4 VARNAME i VARID c:mythread.h@152@F@task1#I#@i FUNCNAME _Z5task1i SYNCS ASYNC id 1073 INVNO 1
READ THREADID 3 VARCLASS LOCAL OFFSET 0x4 VARNAME i VARID c:mythread.h@152@F@task1#I#@i FUNCNAME _Z5task1i SYNCS ASYNC id 1074 INVNO 1
READ THREADID 3 VARCLASS LOCAL OFFSET 0x14 VARNAME x VARID c:mythread.h@138@F@task1#I#@x FUNCNAME _Z5task1i SYNCS ASYNC id 1075 INVNO 1
READ THREADID 3 VARCLASS GLOBAL ADDRESS 0x60607c VARNAME a VARID c:@a FUNCNAME _Z5task1i SYNCS ASYNC id 1076 INVNO 1
WRITE THREADID 3 VARCLASS GLOBAL ADDRESS 0x60607c VARNAME a VARID c:@a FUNCNAME _Z5task1i SYNCS ASYNC id 1077 INVNO 1
READ THREADID 3 VARCLASS LOCAL OFFSET 0x4 VARNAME i VARID c:mythread.h@152@F@task1#I#@i FUNCNAME _Z5task1i SYNCS ASYNC id 1078 INVNO 1
READ THREADID 3 VARCLASS LOCAL OFFSET 0x4 VARNAME i VARID c:mythread.h@152@F@task1#I#@i FUNCNAME _Z5task1i SYNCS ASYNC id 1079 INVNO 1
READ THREADID 3 VARCLASS LOCAL OFFSET 0x14 VARNAME x VARID c:mythread.h@138@F@task1#I#@x FUNCNAME _Z5task1i SYNCS ASYNC id 1080 INVNO 1
READ THREADID 3 VARCLASS GLOBAL ADDRESS 0x60607c VARNAME a VARID c:@a FUNCNAME _Z5task1i SYNCS ASYNC id 1081 INVNO 1
WRITE THREADID 3 VARCLASS GLOBAL ADDRESS 0x60607c VARNAME a VARID c:@a FUNCNAME _Z5task1i SYNCS ASYNC id 1082 INVNO 1
READ THREADID 3 VARCLASS LOCAL OFFSET 0x4 VARNAME i VARID c:mythread.h@152@F@task1#I#@i FUNCNAME _Z5task1i SYNCS ASYNC id 1083 INVNO 1
READ THREADID 3 VARCLASS LOCAL OFFSET 0x4 VARNAME i VARID c:mythread.h@152@F@task1#I#@i FUNCNAME _Z5task1i SYNCS ASYNC id 1084 INVNO 1
READ THREADID 3 VARCLASS LOCAL OFFSET 0x14 VARNAME x VARID c:mythread.h@138@F@task1#I#@x FUNCNAME _Z5task1i SYNCS ASYNC id 1085 INVNO 1
READ THREADID 3 VARCLASS GLOBAL ADDRESS 0x60607c VARNAME a VARID c:@a FUNCNAME _Z5task1i SYNCS ASYNC id 1086 INVNO 1
WRITE THREADID 3 VARCLASS GLOBAL ADDRESS 0x60607c VARNAME a VARID c:@a FUNCNAME _Z5task1i SYNCS ASYNC id 1087 INVNO 1
READ THREADID 3 VARCLASS LOCAL OFFSET 0x4 VARNAME i VARID c:mythread.h@152@F@task1#I#@i FUNCNAME _Z5task1i SYNCS ASYNC id 1088 INVNO 1
READ THREADID 3 VARCLASS LOCAL OFFSET 0x4 VARNAME i VARID c:mythread.h@152@F@task1#I#@i FUNCNAME _Z5task1i SYNCS ASYNC id 1089 INVNO 1
READ THREADID 3 VARCLASS LOCAL OFFSET 0x14 VARNAME x VARID c:mythread.h@138@F@task1#I#@x FUNCNAME _Z5task1i SYNCS ASYNC id 1090 INVNO 1
READ THREADID 3 VARCLASS GLOBAL ADDRESS 0x60607c VARNAME a VARID c:@a FUNCNAME _Z5task1i SYNCS ASYNC id 1091 INVNO 1
WRITE THREADID 3 VARCLASS GLOBAL ADDRESS 0x60607c VARNAME a VARID c:@a FUNCNAME _Z5task1i SYNCS ASYNC id 1092 INVNO 1
READ THREADID 3 VARCLASS LOCAL OFFSET 0x4 VARNAME i VARID c:mythread.h@152@F@task1#I#@i FUNCNAME _Z5task1i SYNCS ASYNC id 1093 INVNO 1
READ THREADID 3 VARCLASS LOCAL OFFSET 0x4 VARNAME i VARID c:mythread.h@152@F@task1#I#@i FUNCNAME _Z5task1i SYNCS ASYNC id 1094 INVNO 1
READ THREADID 3 VARCLASS LOCAL OFFSET 0x14 VARNAME x VARID c:mythread.h@138@F@task1#I#@x FUNCNAME _Z5task1i SYNCS ASYNC id 1095 INVNO 1
READ THREADID 3 VARCLASS GLOBAL ADDRESS 0x60607c VARNAME a VARID c:@a FUNCNAME _Z5task1i SYNCS ASYNC id 1096 INVNO 1
WRITE THREADID 3 VARCLASS GLOBAL ADDRESS 0x60607c VARNAME a VARID c:@a FUNCNAME _Z5task1i SYNCS ASYNC id 1097 INVNO 1
READ THREADID 3 VARCLASS LOCAL OFFSET 0x4 VARNAME i VARID c:mythread.h@152@F@task1#I#@i FUNCNAME _Z5task1i SYNCS ASYNC id 1098 INVNO 1
READ THREADID 3 VARCLASS LOCAL OFFSET 0x4 VARNAME i VARID c:mythread.h@152@F@task1#I#@i FUNCNAME _Z5task1i SYNCS ASYNC id 1099 INVNO 1
READ THREADID 3 VARCLASS LOCAL OFFSET 0x14 VARNAME x VARID c:mythread.h@138@F@task1#I#@x FUNCNAME _Z5task1i SYNCS ASYNC id 1100 INVNO 1
READ THREADID 3 VARCLASS GLOBAL ADDRESS 0x60607c VARNAME a VARID c:@a FUNCNAME _Z5task1i SYNCS ASYNC id 1101 INVNO 1
WRITE THREADID 3 VARCLASS GLOBAL ADDRESS 0x60607c VARNAME a VARID c:@a FUNCNAME _Z5task1i SYNCS ASYNC id 1102 INVNO 1
READ THREADID 3 VARCLASS LOCAL OFFSET 0x4 VARNAME i VARID c:mythread.h@152@F@task1#I#@i FUNCNAME _Z5task1i SYNCS ASYNC id 1103 INVNO 1
READ THREADID 3 VARCLASS LOCAL OFFSET 0x4 VARNAME i VARID c:mythread.h@152@F@task1#I#@i FUNCNAME _Z5task1i SYNCS ASYNC id 1104 INVNO 1
READ THREADID 3 VARCLASS LOCAL OFFSET 0x14 VARNAME x VARID c:mythread.h@138@F@task1#I#@x FUNCNAME _Z5task1i SYNCS ASYNC id 1105 INVNO 1
READ THREADID 3 VARCLASS GLOBAL ADDRESS 0x60607c VARNAME a VARID c:@a FUNCNAME _Z5task1i SYNCS ASYNC id 1106 INVNO 1
WRITE THREADID 3 VARCLASS GLOBAL ADDRESS 0x60607c VARNAME a VARID c:@a FUNCNAME _Z5task1i SYNCS ASYNC id 1107 INVNO 1
READ THREADID 3 VARCLASS LOCAL OFFSET 0x4 VARNAME i VARID c:mythread.h@152@F@task1#I#@i FUNCNAME _Z5task1i SYNCS ASYNC id 1108 INVNO 1
READ THREADID 3 VARCLASS LOCAL OFFSET 0x4 VARNAME i VARID c:mythread.h@152@F@task1#I#@i FUNCNAME _Z5task1i SYNCS ASYNC id 1109 INVNO 1
READ THREADID 3 VARCLASS LOCAL OFFSET 0x14 VARNAME x VARID c:mythread.h@138@F@task1#I#@x FUNCNAME _Z5task1i SYNCS ASYNC id 1110 INVNO 1
READ THREADID 3 VARCLASS GLOBAL ADDRESS 0x60607c VARNAME a VARID c:@a FUNCNAME _Z5task1i SYNCS ASYNC id 1111 INVNO 1
WRITE THREADID 3 VARCLASS GLOBAL ADDRESS 0x60607c VARNAME a VARID c:@a FUNCNAME _Z5task1i SYNCS ASYNC id 1112 INVNO 1
READ THREADID 3 VARCLASS LOCAL OFFSET 0x4 VARNAME i VARID c:mythread.h@152@F@task1#I#@i FUNCNAME _Z5task1i SYNCS ASYNC id 1113 INVNO 1
READ THREADID 3 VARCLASS LOCAL OFFSET 0x4 VARNAME i VARID c:mythread.h@152@F@task1#I#@i FUNCNAME _Z5task1i SYNCS ASYNC id 1114 INVNO 1
READ THREADID 3 VARCLASS LOCAL OFFSET 0x14 VARNAME x VARID c:mythread.h@138@F@task1#I#@x FUNCNAME _Z5task1i SYNCS ASYNC id 1115 INVNO 1
READ THREADID 3 VARCLASS GLOBAL ADDRESS 0x60607c VARNAME a VARID c:@a FUNCNAME _Z5task1i SYNCS ASYNC id 1116 INVNO 1
WRITE THREADID 3 VARCLASS GLOBAL ADDRESS 0x60607c VARNAME a VARID c:@a FUNCNAME _Z5task1i SYNCS ASYNC id 1117 INVNO 1
READ THREADID 3 VARCLASS LOCAL OFFSET 0x4 VARNAME i VARID c:mythread.h@152@F@task1#I#@i FUNCNAME _Z5task1i SYNCS ASYNC id 1118 INVNO 1
READ THREADID 3 VARCLASS LOCAL OFFSET 0x4 VARNAME i VARID c:mythread.h@152@F@task1#I#@i FUNCNAME _Z5task1i SYNCS ASYNC id 1119 INVNO 1
READ THREADID 3 VARCLASS LOCAL OFFSET 0x14 VARNAME x VARID c:mythread.h@138@F@task1#I#@x FUNCNAME _Z5task1i SYNCS ASYNC id 1120 INVNO 1
READ THREADID 3 VARCLASS GLOBAL ADDRESS 0x60607c VARNAME a VARID c:@a FUNCNAME _Z5task1i SYNCS ASYNC id 1121 INVNO 1
WRITE THREADID 3 VARCLASS GLOBAL ADDRESS 0x60607c VARNAME a VARID c:@a FUNCNAME _Z5task1i SYNCS ASYNC id 1122 INVNO 1
READ THREADID 3 VARCLASS LOCAL OFFSET 0x4 VARNAME i VARID c:mythread.h@152@F@task1#I#@i FUNCNAME _Z5task1i SYNCS ASYNC id 1123 INVNO 1
READ THREADID 3 VARCLASS LOCAL OFFSET 0x4 VARNAME i VARID c:mythread.h@152@F@task1#I#@i FUNCNAME _Z5task1i SYNCS ASYNC id 1124 INVNO 1
READ THREADID 3 VARCLASS LOCAL OFFSET 0x14 VARNAME x VARID c:mythread.h@138@F@task1#I#@x FUNCNAME _Z5task1i SYNCS ASYNC id 1125 INVNO 1
READ THREADID 3 VARCLASS GLOBAL ADDRESS 0x60607c VARNAME a VARID c:@a FUNCNAME _Z5task1i SYNCS ASYNC id 1126 INVNO 1
WRITE THREADID 3 VARCLASS GLOBAL ADDRESS 0x60607c VARNAME a VARID c:@a FUNCNAME _Z5task1i SYNCS ASYNC id 1127 INVNO 1
READ THREADID 3 VARCLASS LOCAL OFFSET 0x4 VARNAME i VARID c:mythread.h@152@F@task1#I#@i FUNCNAME _Z5task1i SYNCS ASYNC id 1128 INVNO 1
READ THREADID 3 VARCLASS LOCAL OFFSET 0x4 VARNAME i VARID c:mythread.h@152@F@task1#I#@i FUNCNAME _Z5task1i SYNCS ASYNC id 1129 INVNO 1
READ THREADID 3 VARCLASS LOCAL OFFSET 0x14 VARNAME x VARID c:mythread.h@138@F@task1#I#@x FUNCNAME _Z5task1i SYNCS ASYNC id 1130 INVNO 1
READ THREADID 3 VARCLASS GLOBAL ADDRESS 0x60607c VARNAME a VARID c:@a FUNCNAME _Z5task1i SYNCS ASYNC id 1131 INVNO 1
WRITE THREADID 3 VARCLASS GLOBAL ADDRESS 0x60607c VARNAME a VARID c:@a FUNCNAME _Z5task1i SYNCS ASYNC id 1132 INVNO 1
READ THREADID 3 VARCLASS LOCAL OFFSET 0x4 VARNAME i VARID c:mythread.h@152@F@task1#I#@i FUNCNAME _Z5task1i SYNCS ASYNC id 1133 INVNO 1
READ THREADID 3 VARCLASS LOCAL OFFSET 0x4 VARNAME i VARID c:mythread.h@152@F@task1#I#@i FUNCNAME _Z5task1i SYNCS ASYNC id 1134 INVNO 1
READ THREADID 3 VARCLASS LOCAL OFFSET 0x14 VARNAME x VARID c:mythread.h@138@F@task1#I#@x FUNCNAME _Z5task1i SYNCS ASYNC id 1135 INVNO 1
READ THREADID 3 VARCLASS GLOBAL ADDRESS 0x60607c VARNAME a VARID c:@a FUNCNAME _Z5task1i SYNCS ASYNC id 1136 INVNO 1
WRITE THREADID 3 VARCLASS GLOBAL ADDRESS 0x60607c VARNAME a VARID c:@a FUNCNAME _Z5task1i SYNCS ASYNC id 1137 INVNO 1
READ THREADID 3 VARCLASS LOCAL OFFSET 0x4 VARNAME i VARID c:mythread.h@152@F@task1#I#@i FUNCNAME _Z5task1i SYNCS ASYNC id 1138 INVNO 1
READ THREADID 3 VARCLASS LOCAL OFFSET 0x4 VARNAME i VARID c:mythread.h@152@F@task1#I#@i FUNCNAME _Z5task1i SYNCS ASYNC id 1139 INVNO 1
READ THREADID 3 VARCLASS LOCAL OFFSET 0x14 VARNAME x VARID c:mythread.h@138@F@task1#I#@x FUNCNAME _Z5task1i SYNCS ASYNC id 1140 INVNO 1
READ THREADID 3 VARCLASS GLOBAL ADDRESS 0x60607c VARNAME a VARID c:@a FUNCNAME _Z5task1i SYNCS ASYNC id 1141 INVNO 1
WRITE THREADID 3 VARCLASS GLOBAL ADDRESS 0x60607c VARNAME a VARID c:@a FUNCNAME _Z5task1i SYNCS ASYNC id 1142 INVNO 1
READ THREADID 3 VARCLASS LOCAL OFFSET 0x4 VARNAME i VARID c:mythread.h@152@F@task1#I#@i FUNCNAME _Z5task1i SYNCS ASYNC id 1143 INVNO 1
READ THREADID 3 VARCLASS LOCAL OFFSET 0x4 VARNAME i VARID c:mythread.h@152@F@task1#I#@i FUNCNAME _Z5task1i SYNCS ASYNC id 1144 INVNO 1
READ THREADID 3 VARCLASS LOCAL OFFSET 0x14 VARNAME x VARID c:mythread.h@138@F@task1#I#@x FUNCNAME _Z5task1i SYNCS ASYNC id 1145 INVNO 1
READ THREADID 3 VARCLASS GLOBAL ADDRESS 0x60607c VARNAME a VARID c:@a FUNCNAME _Z5task1i SYNCS ASYNC id 1146 INVNO 1
WRITE THREADID 3 VARCLASS GLOBAL ADDRESS 0x60607c VARNAME a VARID c:@a FUNCNAME _Z5task1i SYNCS ASYNC id 1147 INVNO 1
READ THREADID 3 VARCLASS LOCAL OFFSET 0x4 VARNAME i VARID c:mythread.h@152@F@task1#I#@i FUNCNAME _Z5task1i SYNCS ASYNC id 1148 INVNO 1
READ THREADID 3 VARCLASS LOCAL OFFSET 0x4 VARNAME i VARID c:mythread.h@152@F@task1#I#@i FUNCNAME _Z5task1i SYNCS ASYNC id 1149 INVNO 1
READ THREADID 3 VARCLASS LOCAL OFFSET 0x14 VARNAME x VARID c:mythread.h@138@F@task1#I#@x FUNCNAME _Z5task1i SYNCS ASYNC id 1150 INVNO 1
READ THREADID 3 VARCLASS GLOBAL ADDRESS 0x60607c VARNAME a VARID c:@a FUNCNAME _Z5task1i SYNCS ASYNC id 1151 INVNO 1
WRITE THREADID 3 VARCLASS GLOBAL ADDRESS 0x60607c VARNAME a VARID c:@a FUNCNAME _Z5task1i SYNCS ASYNC id 1152 INVNO 1
READ THREADID 3 VARCLASS LOCAL OFFSET 0x4 VARNAME i VARID c:mythread.h@152@F@task1#I#@i FUNCNAME _Z5task1i SYNCS ASYNC id 1153 INVNO 1
READ THREADID 3 VARCLASS LOCAL OFFSET 0x4 VARNAME i VARID c:mythread.h@152@F@task1#I#@i FUNCNAME _Z5task1i SYNCS ASYNC id 1154 INVNO 1
READ THREADID 3 VARCLASS LOCAL OFFSET 0x14 VARNAME x VARID c:mythread.h@138@F@task1#I#@x FUNCNAME _Z5task1i SYNCS ASYNC id 1155 INVNO 1
READ THREADID 3 VARCLASS GLOBAL ADDRESS 0x60607c VARNAME a VARID c:@a FUNCNAME _Z5task1i SYNCS ASYNC id 1156 INVNO 1
WRITE THREADID 3 VARCLASS GLOBAL ADDRESS 0x60607c VARNAME a VARID c:@a FUNCNAME _Z5task1i SYNCS ASYNC id 1157 INVNO 1
READ THREADID 3 VARCLASS LOCAL OFFSET 0x4 VARNAME i VARID c:mythread.h@152@F@task1#I#@i FUNCNAME _Z5task1i SYNCS ASYNC id 1158 INVNO 1
READ THREADID 3 VARCLASS LOCAL OFFSET 0x4 VARNAME i VARID c:mythread.h@152@F@task1#I#@i FUNCNAME _Z5task1i SYNCS ASYNC id 1159 INVNO 1
READ THREADID 3 VARCLASS LOCAL OFFSET 0x14 VARNAME x VARID c:mythread.h@138@F@task1#I#@x FUNCNAME _Z5task1i SYNCS ASYNC id 1160 INVNO 1
READ THREADID 3 VARCLASS GLOBAL ADDRESS 0x60607c VARNAME a VARID c:@a FUNCNAME _Z5task1i SYNCS ASYNC id 1161 INVNO 1
WRITE THREADID 3 VARCLASS GLOBAL ADDRESS 0x60607c VARNAME a VARID c:@a FUNCNAME _Z5task1i SYNCS ASYNC id 1162 INVNO 1
READ THREADID 3 VARCLASS LOCAL OFFSET 0x4 VARNAME i VARID c:mythread.h@152@F@task1#I#@i FUNCNAME _Z5task1i SYNCS ASYNC id 1163 INVNO 1
READ THREADID 3 VARCLASS LOCAL OFFSET 0x4 VARNAME i VARID c:mythread.h@152@F@task1#I#@i FUNCNAME _Z5task1i SYNCS ASYNC id 1164 INVNO 1
READ THREADID 3 VARCLASS LOCAL OFFSET 0x14 VARNAME x VARID c:mythread.h@138@F@task1#I#@x FUNCNAME _Z5task1i SYNCS ASYNC id 1165 INVNO 1
READ THREADID 3 VARCLASS GLOBAL ADDRESS 0x60607c VARNAME a VARID c:@a FUNCNAME _Z5task1i SYNCS ASYNC id 1166 INVNO 1
WRITE THREADID 3 VARCLASS GLOBAL ADDRESS 0x60607c VARNAME a VARID c:@a FUNCNAME _Z5task1i SYNCS ASYNC id 1167 INVNO 1
READ THREADID 3 VARCLASS LOCAL OFFSET 0x4 VARNAME i VARID c:mythread.h@152@F@task1#I#@i FUNCNAME _Z5task1i SYNCS ASYNC id 1168 INVNO 1
READ THREADID 3 VARCLASS LOCAL OFFSET 0x4 VARNAME i VARID c:mythread.h@152@F@task1#I#@i FUNCNAME _Z5task1i SYNCS ASYNC id 1169 INVNO 1
READ THREADID 3 VARCLASS LOCAL OFFSET 0x14 VARNAME x VARID c:mythread.h@138@F@task1#I#@x FUNCNAME _Z5task1i SYNCS ASYNC id 1170 INVNO 1
READ THREADID 3 VARCLASS GLOBAL ADDRESS 0x60607c VARNAME a VARID c:@a FUNCNAME _Z5task1i SYNCS ASYNC id 1171 INVNO 1
WRITE THREADID 3 VARCLASS GLOBAL ADDRESS 0x60607c VARNAME a VARID c:@a FUNCNAME _Z5task1i SYNCS ASYNC id 1172 INVNO 1
READ THREADID 3 VARCLASS LOCAL OFFSET 0x4 VARNAME i VARID c:mythread.h@152@F@task1#I#@i FUNCNAME _Z5task1i SYNCS ASYNC id 1173 INVNO 1
READ THREADID 3 VARCLASS LOCAL OFFSET 0x4 VARNAME i VARID c:mythread.h@152@F@task1#I#@i FUNCNAME _Z5task1i SYNCS ASYNC id 1174 INVNO 1
READ THREADID 3 VARCLASS LOCAL OFFSET 0x14 VARNAME x VARID c:mythread.h@138@F@task1#I#@x FUNCNAME _Z5task1i SYNCS ASYNC id 1175 INVNO 1
READ THREADID 3 VARCLASS GLOBAL ADDRESS 0x60607c VARNAME a VARID c:@a FUNCNAME _Z5task1i SYNCS ASYNC id 1176 INVNO 1
WRITE THREADID 3 VARCLASS GLOBAL ADDRESS 0x60607c VARNAME a VARID c:@a FUNCNAME _Z5task1i SYNCS ASYNC id 1177 INVNO 1
READ THREADID 3 VARCLASS LOCAL OFFSET 0x4 VARNAME i VARID c:mythread.h@152@F@task1#I#@i FUNCNAME _Z5task1i SYNCS ASYNC id 1178 INVNO 1
READ THREADID 3 VARCLASS LOCAL OFFSET 0x4 VARNAME i VARID c:mythread.h@152@F@task1#I#@i FUNCNAME _Z5task1i SYNCS ASYNC id 1179 INVNO 1
READ THREADID 3 VARCLASS LOCAL OFFSET 0x14 VARNAME x VARID c:mythread.h@138@F@task1#I#@x FUNCNAME _Z5task1i SYNCS ASYNC id 1180 INVNO 1
READ THREADID 3 VARCLASS GLOBAL ADDRESS 0x60607c VARNAME a VARID c:@a FUNCNAME _Z5task1i SYNCS ASYNC id 1181 INVNO 1
WRITE THREADID 3 VARCLASS GLOBAL ADDRESS 0x60607c VARNAME a VARID c:@a FUNCNAME _Z5task1i SYNCS ASYNC id 1182 INVNO 1
READ THREADID 3 VARCLASS LOCAL OFFSET 0x4 VARNAME i VARID c:mythread.h@152@F@task1#I#@i FUNCNAME _Z5task1i SYNCS ASYNC id 1183 INVNO 1
READ THREADID 3 VARCLASS LOCAL OFFSET 0x4 VARNAME i VARID c:mythread.h@152@F@task1#I#@i FUNCNAME _Z5task1i SYNCS ASYNC id 1184 INVNO 1
READ THREADID 3 VARCLASS LOCAL OFFSET 0x14 VARNAME x VARID c:mythread.h@138@F@task1#I#@x FUNCNAME _Z5task1i SYNCS ASYNC id 1185 INVNO 1
READ THREADID 3 VARCLASS GLOBAL ADDRESS 0x60607c VARNAME a VARID c:@a FUNCNAME _Z5task1i SYNCS ASYNC id 1186 INVNO 1
WRITE THREADID 3 VARCLASS GLOBAL ADDRESS 0x60607c VARNAME a VARID c:@a FUNCNAME _Z5task1i SYNCS ASYNC id 1187 INVNO 1
READ THREADID 3 VARCLASS LOCAL OFFSET 0x4 VARNAME i VARID c:mythread.h@152@F@task1#I#@i FUNCNAME _Z5task1i SYNCS ASYNC id 1188 INVNO 1
READ THREADID 3 VARCLASS LOCAL OFFSET 0x4 VARNAME i VARID c:mythread.h@152@F@task1#I#@i FUNCNAME _Z5task1i SYNCS ASYNC id 1189 INVNO 1
READ THREADID 3 VARCLASS LOCAL OFFSET 0x14 VARNAME x VARID c:mythread.h@138@F@task1#I#@x FUNCNAME _Z5task1i SYNCS ASYNC id 1190 INVNO 1
READ THREADID 3 VARCLASS GLOBAL ADDRESS 0x60607c VARNAME a VARID c:@a FUNCNAME _Z5task1i SYNCS ASYNC id 1191 INVNO 1
WRITE THREADID 3 VARCLASS GLOBAL ADDRESS 0x60607c VARNAME a VARID c:@a FUNCNAME _Z5task1i SYNCS ASYNC id 1192 INVNO 1
READ THREADID 3 VARCLASS LOCAL OFFSET 0x4 VARNAME i VARID c:mythread.h@152@F@task1#I#@i FUNCNAME _Z5task1i SYNCS ASYNC id 1193 INVNO 1
READ THREADID 3 VARCLASS LOCAL OFFSET 0x4 VARNAME i VARID c:mythread.h@152@F@task1#I#@i FUNCNAME _Z5task1i SYNCS ASYNC id 1194 INVNO 1
READ THREADID 3 VARCLASS LOCAL OFFSET 0x14 VARNAME x VARID c:mythread.h@138@F@task1#I#@x FUNCNAME _Z5task1i SYNCS ASYNC id 1195 INVNO 1
READ THREADID 3 VARCLASS GLOBAL ADDRESS 0x60607c VARNAME a VARID c:@a FUNCNAME _Z5task1i SYNCS ASYNC id 1196 INVNO 1
WRITE THREADID 3 VARCLASS GLOBAL ADDRESS 0x60607c VARNAME a VARID c:@a FUNCNAME _Z5task1i SYNCS ASYNC id 1197 INVNO 1
READ THREADID 3 VARCLASS LOCAL OFFSET 0x4 VARNAME i VARID c:mythread.h@152@F@task1#I#@i FUNCNAME _Z5task1i SYNCS ASYNC id 1198 INVNO 1
READ THREADID 3 VARCLASS LOCAL OFFSET 0x4 VARNAME i VARID c:mythread.h@152@F@task1#I#@i FUNCNAME _Z5task1i SYNCS ASYNC id 1199 INVNO 1
READ THREADID 3 VARCLASS LOCAL OFFSET 0x14 VARNAME x VARID c:mythread.h@138@F@task1#I#@x FUNCNAME _Z5task1i SYNCS ASYNC id 1200 INVNO 1
READ THREADID 3 VARCLASS GLOBAL ADDRESS 0x60607c VARNAME a VARID c:@a FUNCNAME _Z5task1i SYNCS ASYNC id 1201 INVNO 1
WRITE THREADID 3 VARCLASS GLOBAL ADDRESS 0x60607c VARNAME a VARID c:@a FUNCNAME _Z5task1i SYNCS ASYNC id 1202 INVNO 1
READ THREADID 3 VARCLASS LOCAL OFFSET 0x4 VARNAME i VARID c:mythread.h@152@F@task1#I#@i FUNCNAME _Z5task1i SYNCS ASYNC id 1203 INVNO 1
READ THREADID 3 VARCLASS LOCAL OFFSET 0x4 VARNAME i VARID c:mythread.h@152@F@task1#I#@i FUNCNAME _Z5task1i SYNCS ASYNC id 1204 INVNO 1
READ THREADID 3 VARCLASS LOCAL OFFSET 0x14 VARNAME x VARID c:mythread.h@138@F@task1#I#@x FUNCNAME _Z5task1i SYNCS ASYNC id 1205 INVNO 1
READ THREADID 3 VARCLASS GLOBAL ADDRESS 0x60607c VARNAME a VARID c:@a FUNCNAME _Z5task1i SYNCS ASYNC id 1206 INVNO 1
WRITE THREADID 3 VARCLASS GLOBAL ADDRESS 0x60607c VARNAME a VARID c:@a FUNCNAME _Z5task1i SYNCS ASYNC id 1207 INVNO 1
READ THREADID 3 VARCLASS LOCAL OFFSET 0x4 VARNAME i VARID c:mythread.h@152@F@task1#I#@i FUNCNAME _Z5task1i SYNCS ASYNC id 1208 INVNO 1
READ THREADID 3 VARCLASS LOCAL OFFSET 0x4 VARNAME i VARID c:mythread.h@152@F@task1#I#@i FUNCNAME _Z5task1i SYNCS ASYNC id 1209 INVNO 1
READ THREADID 3 VARCLASS LOCAL OFFSET 0x14 VARNAME x VARID c:mythread.h@138@F@task1#I#@x FUNCNAME _Z5task1i SYNCS ASYNC id 1210 INVNO 1
READ THREADID 3 VARCLASS GLOBAL ADDRESS 0x60607c VARNAME a VARID c:@a FUNCNAME _Z5task1i SYNCS ASYNC id 1211 INVNO 1
WRITE THREADID 3 VARCLASS GLOBAL ADDRESS 0x60607c VARNAME a VARID c:@a FUNCNAME _Z5task1i SYNCS ASYNC id 1212 INVNO 1
READ THREADID 3 VARCLASS LOCAL OFFSET 0x4 VARNAME i VARID c:mythread.h@152@F@task1#I#@i FUNCNAME _Z5task1i SYNCS ASYNC id 1213 INVNO 1
READ THREADID 3 VARCLASS LOCAL OFFSET 0x4 VARNAME i VARID c:mythread.h@152@F@task1#I#@i FUNCNAME _Z5task1i SYNCS ASYNC id 1214 INVNO 1
READ THREADID 3 VARCLASS LOCAL OFFSET 0x14 VARNAME x VARID c:mythread.h@138@F@task1#I#@x FUNCNAME _Z5task1i SYNCS ASYNC id 1215 INVNO 1
READ THREADID 3 VARCLASS GLOBAL ADDRESS 0x60607c VARNAME a VARID c:@a FUNCNAME _Z5task1i SYNCS ASYNC id 1216 INVNO 1
WRITE THREADID 3 VARCLASS GLOBAL ADDRESS 0x60607c VARNAME a VARID c:@a FUNCNAME _Z5task1i SYNCS ASYNC id 1217 INVNO 1
READ THREADID 3 VARCLASS LOCAL OFFSET 0x4 VARNAME i VARID c:mythread.h@152@F@task1#I#@i FUNCNAME _Z5task1i SYNCS ASYNC id 1218 INVNO 1
READ THREADID 3 VARCLASS LOCAL OFFSET 0x4 VARNAME i VARID c:mythread.h@152@F@task1#I#@i FUNCNAME _Z5task1i SYNCS ASYNC id 1219 INVNO 1
READ THREADID 3 VARCLASS LOCAL OFFSET 0x14 VARNAME x VARID c:mythread.h@138@F@task1#I#@x FUNCNAME _Z5task1i SYNCS ASYNC id 1220 INVNO 1
READ THREADID 3 VARCLASS GLOBAL ADDRESS 0x60607c VARNAME a VARID c:@a FUNCNAME _Z5task1i SYNCS ASYNC id 1221 INVNO 1
WRITE THREADID 3 VARCLASS GLOBAL ADDRESS 0x60607c VARNAME a VARID c:@a FUNCNAME _Z5task1i SYNCS ASYNC id 1222 INVNO 1
READ THREADID 3 VARCLASS LOCAL OFFSET 0x4 VARNAME i VARID c:mythread.h@152@F@task1#I#@i FUNCNAME _Z5task1i SYNCS ASYNC id 1223 INVNO 1
READ THREADID 3 VARCLASS LOCAL OFFSET 0x4 VARNAME i VARID c:mythread.h@152@F@task1#I#@i FUNCNAME _Z5task1i SYNCS ASYNC id 1224 INVNO 1
READ THREADID 3 VARCLASS LOCAL OFFSET 0x14 VARNAME x VARID c:mythread.h@138@F@task1#I#@x FUNCNAME _Z5task1i SYNCS ASYNC id 1225 INVNO 1
READ THREADID 3 VARCLASS GLOBAL ADDRESS 0x60607c VARNAME a VARID c:@a FUNCNAME _Z5task1i SYNCS ASYNC id 1226 INVNO 1
WRITE THREADID 3 VARCLASS GLOBAL ADDRESS 0x60607c VARNAME a VARID c:@a FUNCNAME _Z5task1i SYNCS ASYNC id 1227 INVNO 1
READ THREADID 3 VARCLASS LOCAL OFFSET 0x4 VARNAME i VARID c:mythread.h@152@F@task1#I#@i FUNCNAME _Z5task1i SYNCS ASYNC id 1228 INVNO 1
READ THREADID 3 VARCLASS LOCAL OFFSET 0x4 VARNAME i VARID c:mythread.h@152@F@task1#I#@i FUNCNAME _Z5task1i SYNCS ASYNC id 1229 INVNO 1
READ THREADID 3 VARCLASS LOCAL OFFSET 0x14 VARNAME x VARID c:mythread.h@138@F@task1#I#@x FUNCNAME _Z5task1i SYNCS ASYNC id 1230 INVNO 1
READ THREADID 3 VARCLASS GLOBAL ADDRESS 0x60607c VARNAME a VARID c:@a FUNCNAME _Z5task1i SYNCS ASYNC id 1231 INVNO 1
WRITE THREADID 3 VARCLASS GLOBAL ADDRESS 0x60607c VARNAME a VARID c:@a FUNCNAME _Z5task1i SYNCS ASYNC id 1232 INVNO 1
READ THREADID 3 VARCLASS LOCAL OFFSET 0x4 VARNAME i VARID c:mythread.h@152@F@task1#I#@i FUNCNAME _Z5task1i SYNCS ASYNC id 1233 INVNO 1
READ THREADID 3 VARCLASS LOCAL OFFSET 0x4 VARNAME i VARID c:mythread.h@152@F@task1#I#@i FUNCNAME _Z5task1i SYNCS ASYNC id 1234 INVNO 1
READ THREADID 3 VARCLASS LOCAL OFFSET 0x14 VARNAME x VARID c:mythread.h@138@F@task1#I#@x FUNCNAME _Z5task1i SYNCS ASYNC id 1235 INVNO 1
READ THREADID 3 VARCLASS GLOBAL ADDRESS 0x60607c VARNAME a VARID c:@a FUNCNAME _Z5task1i SYNCS ASYNC id 1236 INVNO 1
WRITE THREADID 3 VARCLASS GLOBAL ADDRESS 0x60607c VARNAME a VARID c:@a FUNCNAME _Z5task1i SYNCS ASYNC id 1237 INVNO 1
READ THREADID 3 VARCLASS LOCAL OFFSET 0x4 VARNAME i VARID c:mythread.h@152@F@task1#I#@i FUNCNAME _Z5task1i SYNCS ASYNC id 1238 INVNO 1
READ THREADID 3 VARCLASS LOCAL OFFSET 0x4 VARNAME i VARID c:mythread.h@152@F@task1#I#@i FUNCNAME _Z5task1i SYNCS ASYNC id 1239 INVNO 1
READ THREADID 3 VARCLASS LOCAL OFFSET 0x14 VARNAME x VARID c:mythread.h@138@F@task1#I#@x FUNCNAME _Z5task1i SYNCS ASYNC id 1240 INVNO 1
READ THREADID 3 VARCLASS GLOBAL ADDRESS 0x60607c VARNAME a VARID c:@a FUNCNAME _Z5task1i SYNCS ASYNC id 1241 INVNO 1
WRITE THREADID 3 VARCLASS GLOBAL ADDRESS 0x60607c VARNAME a VARID c:@a FUNCNAME _Z5task1i SYNCS ASYNC id 1242 INVNO 1
READ THREADID 3 VARCLASS LOCAL OFFSET 0x4 VARNAME i VARID c:mythread.h@152@F@task1#I#@i FUNCNAME _Z5task1i SYNCS ASYNC id 1243 INVNO 1
READ THREADID 3 VARCLASS LOCAL OFFSET 0x4 VARNAME i VARID c:mythread.h@152@F@task1#I#@i FUNCNAME _Z5task1i SYNCS ASYNC id 1244 INVNO 1
READ THREADID 3 VARCLASS LOCAL OFFSET 0x14 VARNAME x VARID c:mythread.h@138@F@task1#I#@x FUNCNAME _Z5task1i SYNCS ASYNC id 1245 INVNO 1
READ THREADID 3 VARCLASS GLOBAL ADDRESS 0x60607c VARNAME a VARID c:@a FUNCNAME _Z5task1i SYNCS ASYNC id 1246 INVNO 1
WRITE THREADID 3 VARCLASS GLOBAL ADDRESS 0x60607c VARNAME a VARID c:@a FUNCNAME _Z5task1i SYNCS ASYNC id 1247 INVNO 1
READ THREADID 3 VARCLASS LOCAL OFFSET 0x4 VARNAME i VARID c:mythread.h@152@F@task1#I#@i FUNCNAME _Z5task1i SYNCS ASYNC id 1248 INVNO 1
READ THREADID 3 VARCLASS LOCAL OFFSET 0x4 VARNAME i VARID c:mythread.h@152@F@task1#I#@i FUNCNAME _Z5task1i SYNCS ASYNC id 1249 INVNO 1
READ THREADID 3 VARCLASS LOCAL OFFSET 0x14 VARNAME x VARID c:mythread.h@138@F@task1#I#@x FUNCNAME _Z5task1i SYNCS ASYNC id 1250 INVNO 1
READ THREADID 3 VARCLASS GLOBAL ADDRESS 0x60607c VARNAME a VARID c:@a FUNCNAME _Z5task1i SYNCS ASYNC id 1251 INVNO 1
WRITE THREADID 3 VARCLASS GLOBAL ADDRESS 0x60607c VARNAME a VARID c:@a FUNCNAME _Z5task1i SYNCS ASYNC id 1252 INVNO 1
READ THREADID 3 VARCLASS LOCAL OFFSET 0x4 VARNAME i VARID c:mythread.h@152@F@task1#I#@i FUNCNAME _Z5task1i SYNCS ASYNC id 1253 INVNO 1
READ THREADID 3 VARCLASS LOCAL OFFSET 0x4 VARNAME i VARID c:mythread.h@152@F@task1#I#@i FUNCNAME _Z5task1i SYNCS ASYNC id 1254 INVNO 1
READ THREADID 3 VARCLASS LOCAL OFFSET 0x14 VARNAME x VARID c:mythread.h@138@F@task1#I#@x FUNCNAME _Z5task1i SYNCS ASYNC id 1255 INVNO 1
READ THREADID 3 VARCLASS GLOBAL ADDRESS 0x60607c VARNAME a VARID c:@a FUNCNAME _Z5task1i SYNCS ASYNC id 1256 INVNO 1
WRITE THREADID 3 VARCLASS GLOBAL ADDRESS 0x60607c VARNAME a VARID c:@a FUNCNAME _Z5task1i SYNCS ASYNC id 1257 INVNO 1
READ THREADID 3 VARCLASS LOCAL OFFSET 0x4 VARNAME i VARID c:mythread.h@152@F@task1#I#@i FUNCNAME _Z5task1i SYNCS ASYNC id 1258 INVNO 1
READ THREADID 3 VARCLASS LOCAL OFFSET 0x4 VARNAME i VARID c:mythread.h@152@F@task1#I#@i FUNCNAME _Z5task1i SYNCS ASYNC id 1259 INVNO 1
READ THREADID 3 VARCLASS LOCAL OFFSET 0x14 VARNAME x VARID c:mythread.h@138@F@task1#I#@x FUNCNAME _Z5task1i SYNCS ASYNC id 1260 INVNO 1
READ THREADID 3 VARCLASS GLOBAL ADDRESS 0x60607c VARNAME a VARID c:@a FUNCNAME _Z5task1i SYNCS ASYNC id 1261 INVNO 1
WRITE THREADID 3 VARCLASS GLOBAL ADDRESS 0x60607c VARNAME a VARID c:@a FUNCNAME _Z5task1i SYNCS ASYNC id 1262 INVNO 1
READ THREADID 3 VARCLASS LOCAL OFFSET 0x4 VARNAME i VARID c:mythread.h@152@F@task1#I#@i FUNCNAME _Z5task1i SYNCS ASYNC id 1263 INVNO 1
READ THREADID 3 VARCLASS LOCAL OFFSET 0x4 VARNAME i VARID c:mythread.h@152@F@task1#I#@i FUNCNAME _Z5task1i SYNCS ASYNC id 1264 INVNO 1
READ THREADID 3 VARCLASS LOCAL OFFSET 0x14 VARNAME x VARID c:mythread.h@138@F@task1#I#@x FUNCNAME _Z5task1i SYNCS ASYNC id 1265 INVNO 1
READ THREADID 3 VARCLASS GLOBAL ADDRESS 0x60607c VARNAME a VARID c:@a FUNCNAME _Z5task1i SYNCS ASYNC id 1266 INVNO 1
WRITE THREADID 3 VARCLASS GLOBAL ADDRESS 0x60607c VARNAME a VARID c:@a FUNCNAME _Z5task1i SYNCS ASYNC id 1267 INVNO 1
READ THREADID 3 VARCLASS LOCAL OFFSET 0x4 VARNAME i VARID c:mythread.h@152@F@task1#I#@i FUNCNAME _Z5task1i SYNCS ASYNC id 1268 INVNO 1
READ THREADID 3 VARCLASS LOCAL OFFSET 0x4 VARNAME i VARID c:mythread.h@152@F@task1#I#@i FUNCNAME _Z5task1i SYNCS ASYNC id 1269 INVNO 1
READ THREADID 3 VARCLASS LOCAL OFFSET 0x14 VARNAME x VARID c:mythread.h@138@F@task1#I#@x FUNCNAME _Z5task1i SYNCS ASYNC id 1270 INVNO 1
READ THREADID 3 VARCLASS GLOBAL ADDRESS 0x60607c VARNAME a VARID c:@a FUNCNAME _Z5task1i SYNCS ASYNC id 1271 INVNO 1
WRITE THREADID 3 VARCLASS GLOBAL ADDRESS 0x60607c VARNAME a VARID c:@a FUNCNAME _Z5task1i SYNCS ASYNC id 1272 INVNO 1
READ THREADID 3 VARCLASS LOCAL OFFSET 0x4 VARNAME i VARID c:mythread.h@152@F@task1#I#@i FUNCNAME _Z5task1i SYNCS ASYNC id 1273 INVNO 1
READ THREADID 3 VARCLASS LOCAL OFFSET 0x4 VARNAME i VARID c:mythread.h@152@F@task1#I#@i FUNCNAME _Z5task1i SYNCS ASYNC id 1274 INVNO 1
READ THREADID 3 VARCLASS LOCAL OFFSET 0x14 VARNAME x VARID c:mythread.h@138@F@task1#I#@x FUNCNAME _Z5task1i SYNCS ASYNC id 1275 INVNO 1
READ THREADID 3 VARCLASS GLOBAL ADDRESS 0x60607c VARNAME a VARID c:@a FUNCNAME _Z5task1i SYNCS ASYNC id 1276 INVNO 1
WRITE THREADID 3 VARCLASS GLOBAL ADDRESS 0x60607c VARNAME a VARID c:@a FUNCNAME _Z5task1i SYNCS ASYNC id 1277 INVNO 1
READ THREADID 3 VARCLASS LOCAL OFFSET 0x4 VARNAME i VARID c:mythread.h@152@F@task1#I#@i FUNCNAME _Z5task1i SYNCS ASYNC id 1278 INVNO 1
READ THREADID 3 VARCLASS LOCAL OFFSET 0x4 VARNAME i VARID c:mythread.h@152@F@task1#I#@i FUNCNAME _Z5task1i SYNCS ASYNC id 1279 INVNO 1
READ THREADID 3 VARCLASS LOCAL OFFSET 0x14 VARNAME x VARID c:mythread.h@138@F@task1#I#@x FUNCNAME _Z5task1i SYNCS ASYNC id 1280 INVNO 1
READ THREADID 3 VARCLASS GLOBAL ADDRESS 0x60607c VARNAME a VARID c:@a FUNCNAME _Z5task1i SYNCS ASYNC id 1281 INVNO 1
WRITE THREADID 3 VARCLASS GLOBAL ADDRESS 0x60607c VARNAME a VARID c:@a FUNCNAME _Z5task1i SYNCS ASYNC id 1282 INVNO 1
READ THREADID 3 VARCLASS LOCAL OFFSET 0x4 VARNAME i VARID c:mythread.h@152@F@task1#I#@i FUNCNAME _Z5task1i SYNCS ASYNC id 1283 INVNO 1
READ THREADID 3 VARCLASS LOCAL OFFSET 0x4 VARNAME i VARID c:mythread.h@152@F@task1#I#@i FUNCNAME _Z5task1i SYNCS ASYNC id 1284 INVNO 1
READ THREADID 3 VARCLASS LOCAL OFFSET 0x14 VARNAME x VARID c:mythread.h@138@F@task1#I#@x FUNCNAME _Z5task1i SYNCS ASYNC id 1285 INVNO 1
READ THREADID 3 VARCLASS GLOBAL ADDRESS 0x60607c VARNAME a VARID c:@a FUNCNAME _Z5task1i SYNCS ASYNC id 1286 INVNO 1
WRITE THREADID 3 VARCLASS GLOBAL ADDRESS 0x60607c VARNAME a VARID c:@a FUNCNAME _Z5task1i SYNCS ASYNC id 1287 INVNO 1
READ THREADID 3 VARCLASS LOCAL OFFSET 0x4 VARNAME i VARID c:mythread.h@152@F@task1#I#@i FUNCNAME _Z5task1i SYNCS ASYNC id 1288 INVNO 1
READ THREADID 3 VARCLASS LOCAL OFFSET 0x4 VARNAME i VARID c:mythread.h@152@F@task1#I#@i FUNCNAME _Z5task1i SYNCS ASYNC id 1289 INVNO 1
READ THREADID 3 VARCLASS LOCAL OFFSET 0x14 VARNAME x VARID c:mythread.h@138@F@task1#I#@x FUNCNAME _Z5task1i SYNCS ASYNC id 1290 INVNO 1
READ THREADID 3 VARCLASS GLOBAL ADDRESS 0x60607c VARNAME a VARID c:@a FUNCNAME _Z5task1i SYNCS ASYNC id 1291 INVNO 1
WRITE THREADID 3 VARCLASS GLOBAL ADDRESS 0x60607c VARNAME a VARID c:@a FUNCNAME _Z5task1i SYNCS ASYNC id 1292 INVNO 1
READ THREADID 3 VARCLASS LOCAL OFFSET 0x4 VARNAME i VARID c:mythread.h@152@F@task1#I#@i FUNCNAME _Z5task1i SYNCS ASYNC id 1293 INVNO 1
READ THREADID 3 VARCLASS LOCAL OFFSET 0x4 VARNAME i VARID c:mythread.h@152@F@task1#I#@i FUNCNAME _Z5task1i SYNCS ASYNC id 1294 INVNO 1
READ THREADID 3 VARCLASS LOCAL OFFSET 0x14 VARNAME x VARID c:mythread.h@138@F@task1#I#@x FUNCNAME _Z5task1i SYNCS ASYNC id 1295 INVNO 1
READ THREADID 3 VARCLASS GLOBAL ADDRESS 0x60607c VARNAME a VARID c:@a FUNCNAME _Z5task1i SYNCS ASYNC id 1296 INVNO 1
WRITE THREADID 3 VARCLASS GLOBAL ADDRESS 0x60607c VARNAME a VARID c:@a FUNCNAME _Z5task1i SYNCS ASYNC id 1297 INVNO 1
READ THREADID 3 VARCLASS LOCAL OFFSET 0x4 VARNAME i VARID c:mythread.h@152@F@task1#I#@i FUNCNAME _Z5task1i SYNCS ASYNC id 1298 INVNO 1
READ THREADID 3 VARCLASS LOCAL OFFSET 0x4 VARNAME i VARID c:mythread.h@152@F@task1#I#@i FUNCNAME _Z5task1i SYNCS ASYNC id 1299 INVNO 1
READ THREADID 3 VARCLASS LOCAL OFFSET 0x14 VARNAME x VARID c:mythread.h@138@F@task1#I#@x FUNCNAME _Z5task1i SYNCS ASYNC id 1300 INVNO 1
READ THREADID 3 VARCLASS GLOBAL ADDRESS 0x60607c VARNAME a VARID c:@a FUNCNAME _Z5task1i SYNCS ASYNC id 1301 INVNO 1
WRITE THREADID 3 VARCLASS GLOBAL ADDRESS 0x60607c VARNAME a VARID c:@a FUNCNAME _Z5task1i SYNCS ASYNC id 1302 INVNO 1
READ THREADID 3 VARCLASS LOCAL OFFSET 0x4 VARNAME i VARID c:mythread.h@152@F@task1#I#@i FUNCNAME _Z5task1i SYNCS ASYNC id 1303 INVNO 1
READ THREADID 3 VARCLASS LOCAL OFFSET 0x4 VARNAME i VARID c:mythread.h@152@F@task1#I#@i FUNCNAME _Z5task1i SYNCS ASYNC id 1304 INVNO 1
READ THREADID 3 VARCLASS LOCAL OFFSET 0x14 VARNAME x VARID c:mythread.h@138@F@task1#I#@x FUNCNAME _Z5task1i SYNCS ASYNC id 1305 INVNO 1
READ THREADID 3 VARCLASS GLOBAL ADDRESS 0x60607c VARNAME a VARID c:@a FUNCNAME _Z5task1i SYNCS ASYNC id 1306 INVNO 1
WRITE THREADID 3 VARCLASS GLOBAL ADDRESS 0x60607c VARNAME a VARID c:@a FUNCNAME _Z5task1i SYNCS ASYNC id 1307 INVNO 1
READ THREADID 3 VARCLASS LOCAL OFFSET 0x4 VARNAME i VARID c:mythread.h@152@F@task1#I#@i FUNCNAME _Z5task1i SYNCS ASYNC id 1308 INVNO 1
READ THREADID 3 VARCLASS LOCAL OFFSET 0x4 VARNAME i VARID c:mythread.h@152@F@task1#I#@i FUNCNAME _Z5task1i SYNCS ASYNC id 1309 INVNO 1
READ THREADID 3 VARCLASS LOCAL OFFSET 0x14 VARNAME x VARID c:mythread.h@138@F@task1#I#@x FUNCNAME _Z5task1i SYNCS ASYNC id 1310 INVNO 1
READ THREADID 3 VARCLASS GLOBAL ADDRESS 0x60607c VARNAME a VARID c:@a FUNCNAME _Z5task1i SYNCS ASYNC id 1311 INVNO 1
WRITE THREADID 3 VARCLASS GLOBAL ADDRESS 0x60607c VARNAME a VARID c:@a FUNCNAME _Z5task1i SYNCS ASYNC id 1312 INVNO 1
READ THREADID 3 VARCLASS LOCAL OFFSET 0x4 VARNAME i VARID c:mythread.h@152@F@task1#I#@i FUNCNAME _Z5task1i SYNCS ASYNC id 1313 INVNO 1
READ THREADID 3 VARCLASS LOCAL OFFSET 0x4 VARNAME i VARID c:mythread.h@152@F@task1#I#@i FUNCNAME _Z5task1i SYNCS ASYNC id 1314 INVNO 1
READ THREADID 3 VARCLASS LOCAL OFFSET 0x14 VARNAME x VARID c:mythread.h@138@F@task1#I#@x FUNCNAME _Z5task1i SYNCS ASYNC id 1315 INVNO 1
READ THREADID 3 VARCLASS GLOBAL ADDRESS 0x60607c VARNAME a VARID c:@a FUNCNAME _Z5task1i SYNCS ASYNC id 1316 INVNO 1
WRITE THREADID 3 VARCLASS GLOBAL ADDRESS 0x60607c VARNAME a VARID c:@a FUNCNAME _Z5task1i SYNCS ASYNC id 1317 INVNO 1
READ THREADID 3 VARCLASS LOCAL OFFSET 0x4 VARNAME i VARID c:mythread.h@152@F@task1#I#@i FUNCNAME _Z5task1i SYNCS ASYNC id 1318 INVNO 1
READ THREADID 3 VARCLASS LOCAL OFFSET 0x4 VARNAME i VARID c:mythread.h@152@F@task1#I#@i FUNCNAME _Z5task1i SYNCS ASYNC id 1319 INVNO 1
READ THREADID 3 VARCLASS LOCAL OFFSET 0x14 VARNAME x VARID c:mythread.h@138@F@task1#I#@x FUNCNAME _Z5task1i SYNCS ASYNC id 1320 INVNO 1
READ THREADID 3 VARCLASS GLOBAL ADDRESS 0x60607c VARNAME a VARID c:@a FUNCNAME _Z5task1i SYNCS ASYNC id 1321 INVNO 1
WRITE THREADID 3 VARCLASS GLOBAL ADDRESS 0x60607c VARNAME a VARID c:@a FUNCNAME _Z5task1i SYNCS ASYNC id 1322 INVNO 1
READ THREADID 3 VARCLASS LOCAL OFFSET 0x4 VARNAME i VARID c:mythread.h@152@F@task1#I#@i FUNCNAME _Z5task1i SYNCS ASYNC id 1323 INVNO 1
READ THREADID 3 VARCLASS LOCAL OFFSET 0x4 VARNAME i VARID c:mythread.h@152@F@task1#I#@i FUNCNAME _Z5task1i SYNCS ASYNC id 1324 INVNO 1
READ THREADID 3 VARCLASS LOCAL OFFSET 0x14 VARNAME x VARID c:mythread.h@138@F@task1#I#@x FUNCNAME _Z5task1i SYNCS ASYNC id 1325 INVNO 1
READ THREADID 3 VARCLASS GLOBAL ADDRESS 0x60607c VARNAME a VARID c:@a FUNCNAME _Z5task1i SYNCS ASYNC id 1326 INVNO 1
WRITE THREADID 3 VARCLASS GLOBAL ADDRESS 0x60607c VARNAME a VARID c:@a FUNCNAME _Z5task1i SYNCS ASYNC id 1327 INVNO 1
READ THREADID 3 VARCLASS LOCAL OFFSET 0x4 VARNAME i VARID c:mythread.h@152@F@task1#I#@i FUNCNAME _Z5task1i SYNCS ASYNC id 1328 INVNO 1
READ THREADID 3 VARCLASS LOCAL OFFSET 0x4 VARNAME i VARID c:mythread.h@152@F@task1#I#@i FUNCNAME _Z5task1i SYNCS ASYNC id 1329 INVNO 1
READ THREADID 3 VARCLASS LOCAL OFFSET 0x14 VARNAME x VARID c:mythread.h@138@F@task1#I#@x FUNCNAME _Z5task1i SYNCS ASYNC id 1330 INVNO 1
READ THREADID 3 VARCLASS GLOBAL ADDRESS 0x60607c VARNAME a VARID c:@a FUNCNAME _Z5task1i SYNCS ASYNC id 1331 INVNO 1
WRITE THREADID 3 VARCLASS GLOBAL ADDRESS 0x60607c VARNAME a VARID c:@a FUNCNAME _Z5task1i SYNCS ASYNC id 1332 INVNO 1
READ THREADID 3 VARCLASS LOCAL OFFSET 0x4 VARNAME i VARID c:mythread.h@152@F@task1#I#@i FUNCNAME _Z5task1i SYNCS ASYNC id 1333 INVNO 1
READ THREADID 3 VARCLASS LOCAL OFFSET 0x4 VARNAME i VARID c:mythread.h@152@F@task1#I#@i FUNCNAME _Z5task1i SYNCS ASYNC id 1334 INVNO 1
READ THREADID 3 VARCLASS LOCAL OFFSET 0x14 VARNAME x VARID c:mythread.h@138@F@task1#I#@x FUNCNAME _Z5task1i SYNCS ASYNC id 1335 INVNO 1
READ THREADID 3 VARCLASS GLOBAL ADDRESS 0x60607c VARNAME a VARID c:@a FUNCNAME _Z5task1i SYNCS ASYNC id 1336 INVNO 1
WRITE THREADID 3 VARCLASS GLOBAL ADDRESS 0x60607c VARNAME a VARID c:@a FUNCNAME _Z5task1i SYNCS ASYNC id 1337 INVNO 1
READ THREADID 3 VARCLASS LOCAL OFFSET 0x4 VARNAME i VARID c:mythread.h@152@F@task1#I#@i FUNCNAME _Z5task1i SYNCS ASYNC id 1338 INVNO 1
READ THREADID 3 VARCLASS LOCAL OFFSET 0x4 VARNAME i VARID c:mythread.h@152@F@task1#I#@i FUNCNAME _Z5task1i SYNCS ASYNC id 1339 INVNO 1
READ THREADID 3 VARCLASS LOCAL OFFSET 0x14 VARNAME x VARID c:mythread.h@138@F@task1#I#@x FUNCNAME _Z5task1i SYNCS ASYNC id 1340 INVNO 1
READ THREADID 3 VARCLASS GLOBAL ADDRESS 0x60607c VARNAME a VARID c:@a FUNCNAME _Z5task1i SYNCS ASYNC id 1341 INVNO 1
WRITE THREADID 3 VARCLASS GLOBAL ADDRESS 0x60607c VARNAME a VARID c:@a FUNCNAME _Z5task1i SYNCS ASYNC id 1342 INVNO 1
READ THREADID 3 VARCLASS LOCAL OFFSET 0x4 VARNAME i VARID c:mythread.h@152@F@task1#I#@i FUNCNAME _Z5task1i SYNCS ASYNC id 1343 INVNO 1
READ THREADID 3 VARCLASS LOCAL OFFSET 0x4 VARNAME i VARID c:mythread.h@152@F@task1#I#@i FUNCNAME _Z5task1i SYNCS ASYNC id 1344 INVNO 1
READ THREADID 3 VARCLASS LOCAL OFFSET 0x14 VARNAME x VARID c:mythread.h@138@F@task1#I#@x FUNCNAME _Z5task1i SYNCS ASYNC id 1345 INVNO 1
READ THREADID 3 VARCLASS GLOBAL ADDRESS 0x60607c VARNAME a VARID c:@a FUNCNAME _Z5task1i SYNCS ASYNC id 1346 INVNO 1
WRITE THREADID 3 VARCLASS GLOBAL ADDRESS 0x60607c VARNAME a VARID c:@a FUNCNAME _Z5task1i SYNCS ASYNC id 1347 INVNO 1
READ THREADID 3 VARCLASS LOCAL OFFSET 0x4 VARNAME i VARID c:mythread.h@152@F@task1#I#@i FUNCNAME _Z5task1i SYNCS ASYNC id 1348 INVNO 1
READ THREADID 3 VARCLASS LOCAL OFFSET 0x4 VARNAME i VARID c:mythread.h@152@F@task1#I#@i FUNCNAME _Z5task1i SYNCS ASYNC id 1349 INVNO 1
READ THREADID 3 VARCLASS LOCAL OFFSET 0x14 VARNAME x VARID c:mythread.h@138@F@task1#I#@x FUNCNAME _Z5task1i SYNCS ASYNC id 1350 INVNO 1
READ THREADID 3 VARCLASS GLOBAL ADDRESS 0x60607c VARNAME a VARID c:@a FUNCNAME _Z5task1i SYNCS ASYNC id 1351 INVNO 1
WRITE THREADID 3 VARCLASS GLOBAL ADDRESS 0x60607c VARNAME a VARID c:@a FUNCNAME _Z5task1i SYNCS ASYNC id 1352 INVNO 1
READ THREADID 3 VARCLASS LOCAL OFFSET 0x4 VARNAME i VARID c:mythread.h@152@F@task1#I#@i FUNCNAME _Z5task1i SYNCS ASYNC id 1353 INVNO 1
READ THREADID 3 VARCLASS LOCAL OFFSET 0x4 VARNAME i VARID c:mythread.h@152@F@task1#I#@i FUNCNAME _Z5task1i SYNCS ASYNC id 1354 INVNO 1
READ THREADID 3 VARCLASS LOCAL OFFSET 0x14 VARNAME x VARID c:mythread.h@138@F@task1#I#@x FUNCNAME _Z5task1i SYNCS ASYNC id 1355 INVNO 1
READ THREADID 3 VARCLASS GLOBAL ADDRESS 0x60607c VARNAME a VARID c:@a FUNCNAME _Z5task1i SYNCS ASYNC id 1356 INVNO 1
WRITE THREADID 3 VARCLASS GLOBAL ADDRESS 0x60607c VARNAME a VARID c:@a FUNCNAME _Z5task1i SYNCS ASYNC id 1357 INVNO 1
READ THREADID 3 VARCLASS LOCAL OFFSET 0x4 VARNAME i VARID c:mythread.h@152@F@task1#I#@i FUNCNAME _Z5task1i SYNCS ASYNC id 1358 INVNO 1
READ THREADID 3 VARCLASS LOCAL OFFSET 0x4 VARNAME i VARID c:mythread.h@152@F@task1#I#@i FUNCNAME _Z5task1i SYNCS ASYNC id 1359 INVNO 1
READ THREADID 3 VARCLASS LOCAL OFFSET 0x14 VARNAME x VARID c:mythread.h@138@F@task1#I#@x FUNCNAME _Z5task1i SYNCS ASYNC id 1360 INVNO 1
READ THREADID 3 VARCLASS GLOBAL ADDRESS 0x60607c VARNAME a VARID c:@a FUNCNAME _Z5task1i SYNCS ASYNC id 1361 INVNO 1
WRITE THREADID 3 VARCLASS GLOBAL ADDRESS 0x60607c VARNAME a VARID c:@a FUNCNAME _Z5task1i SYNCS ASYNC id 1362 INVNO 1
READ THREADID 3 VARCLASS LOCAL OFFSET 0x4 VARNAME i VARID c:mythread.h@152@F@task1#I#@i FUNCNAME _Z5task1i SYNCS ASYNC id 1363 INVNO 1
READ THREADID 3 VARCLASS LOCAL OFFSET 0x4 VARNAME i VARID c:mythread.h@152@F@task1#I#@i FUNCNAME _Z5task1i SYNCS ASYNC id 1364 INVNO 1
READ THREADID 3 VARCLASS LOCAL OFFSET 0x14 VARNAME x VARID c:mythread.h@138@F@task1#I#@x FUNCNAME _Z5task1i SYNCS ASYNC id 1365 INVNO 1
READ THREADID 3 VARCLASS GLOBAL ADDRESS 0x60607c VARNAME a VARID c:@a FUNCNAME _Z5task1i SYNCS ASYNC id 1366 INVNO 1
WRITE THREADID 3 VARCLASS GLOBAL ADDRESS 0x60607c VARNAME a VARID c:@a FUNCNAME _Z5task1i SYNCS ASYNC id 1367 INVNO 1
READ THREADID 3 VARCLASS LOCAL OFFSET 0x4 VARNAME i VARID c:mythread.h@152@F@task1#I#@i FUNCNAME _Z5task1i SYNCS ASYNC id 1368 INVNO 1
READ THREADID 3 VARCLASS LOCAL OFFSET 0x4 VARNAME i VARID c:mythread.h@152@F@task1#I#@i FUNCNAME _Z5task1i SYNCS ASYNC id 1369 INVNO 1
READ THREADID 3 VARCLASS LOCAL OFFSET 0x14 VARNAME x VARID c:mythread.h@138@F@task1#I#@x FUNCNAME _Z5task1i SYNCS ASYNC id 1370 INVNO 1
READ THREADID 3 VARCLASS GLOBAL ADDRESS 0x60607c VARNAME a VARID c:@a FUNCNAME _Z5task1i SYNCS ASYNC id 1371 INVNO 1
WRITE THREADID 3 VARCLASS GLOBAL ADDRESS 0x60607c VARNAME a VARID c:@a FUNCNAME _Z5task1i SYNCS ASYNC id 1372 INVNO 1
READ THREADID 3 VARCLASS LOCAL OFFSET 0x4 VARNAME i VARID c:mythread.h@152@F@task1#I#@i FUNCNAME _Z5task1i SYNCS ASYNC id 1373 INVNO 1
READ THREADID 3 VARCLASS LOCAL OFFSET 0x4 VARNAME i VARID c:mythread.h@152@F@task1#I#@i FUNCNAME _Z5task1i SYNCS ASYNC id 1374 INVNO 1
READ THREADID 3 VARCLASS LOCAL OFFSET 0x14 VARNAME x VARID c:mythread.h@138@F@task1#I#@x FUNCNAME _Z5task1i SYNCS ASYNC id 1375 INVNO 1
READ THREADID 3 VARCLASS GLOBAL ADDRESS 0x60607c VARNAME a VARID c:@a FUNCNAME _Z5task1i SYNCS ASYNC id 1376 INVNO 1
WRITE THREADID 3 VARCLASS GLOBAL ADDRESS 0x60607c VARNAME a VARID c:@a FUNCNAME _Z5task1i SYNCS ASYNC id 1377 INVNO 1
READ THREADID 3 VARCLASS LOCAL OFFSET 0x4 VARNAME i VARID c:mythread.h@152@F@task1#I#@i FUNCNAME _Z5task1i SYNCS ASYNC id 1378 INVNO 1
READ THREADID 3 VARCLASS LOCAL OFFSET 0x4 VARNAME i VARID c:mythread.h@152@F@task1#I#@i FUNCNAME _Z5task1i SYNCS ASYNC id 1379 INVNO 1
READ THREADID 3 VARCLASS LOCAL OFFSET 0x14 VARNAME x VARID c:mythread.h@138@F@task1#I#@x FUNCNAME _Z5task1i SYNCS ASYNC id 1380 INVNO 1
READ THREADID 3 VARCLASS GLOBAL ADDRESS 0x60607c VARNAME a VARID c:@a FUNCNAME _Z5task1i SYNCS ASYNC id 1381 INVNO 1
WRITE THREADID 3 VARCLASS GLOBAL ADDRESS 0x60607c VARNAME a VARID c:@a FUNCNAME _Z5task1i SYNCS ASYNC id 1382 INVNO 1
READ THREADID 3 VARCLASS LOCAL OFFSET 0x4 VARNAME i VARID c:mythread.h@152@F@task1#I#@i FUNCNAME _Z5task1i SYNCS ASYNC id 1383 INVNO 1
READ THREADID 3 VARCLASS LOCAL OFFSET 0x4 VARNAME i VARID c:mythread.h@152@F@task1#I#@i FUNCNAME _Z5task1i SYNCS ASYNC id 1384 INVNO 1
READ THREADID 3 VARCLASS LOCAL OFFSET 0x14 VARNAME x VARID c:mythread.h@138@F@task1#I#@x FUNCNAME _Z5task1i SYNCS ASYNC id 1385 INVNO 1
READ THREADID 3 VARCLASS GLOBAL ADDRESS 0x60607c VARNAME a VARID c:@a FUNCNAME _Z5task1i SYNCS ASYNC id 1386 INVNO 1
WRITE THREADID 3 VARCLASS GLOBAL ADDRESS 0x60607c VARNAME a VARID c:@a FUNCNAME _Z5task1i SYNCS ASYNC id 1387 INVNO 1
READ THREADID 3 VARCLASS LOCAL OFFSET 0x4 VARNAME i VARID c:mythread.h@152@F@task1#I#@i FUNCNAME _Z5task1i SYNCS ASYNC id 1388 INVNO 1
READ THREADID 3 VARCLASS LOCAL OFFSET 0x4 VARNAME i VARID c:mythread.h@152@F@task1#I#@i FUNCNAME _Z5task1i SYNCS ASYNC id 1389 INVNO 1
READ THREADID 3 VARCLASS LOCAL OFFSET 0x14 VARNAME x VARID c:mythread.h@138@F@task1#I#@x FUNCNAME _Z5task1i SYNCS ASYNC id 1390 INVNO 1
READ THREADID 3 VARCLASS GLOBAL ADDRESS 0x60607c VARNAME a VARID c:@a FUNCNAME _Z5task1i SYNCS ASYNC id 1391 INVNO 1
WRITE THREADID 3 VARCLASS GLOBAL ADDRESS 0x60607c VARNAME a VARID c:@a FUNCNAME _Z5task1i SYNCS ASYNC id 1392 INVNO 1
READ THREADID 3 VARCLASS LOCAL OFFSET 0x4 VARNAME i VARID c:mythread.h@152@F@task1#I#@i FUNCNAME _Z5task1i SYNCS ASYNC id 1393 INVNO 1
READ THREADID 3 VARCLASS LOCAL OFFSET 0x4 VARNAME i VARID c:mythread.h@152@F@task1#I#@i FUNCNAME _Z5task1i SYNCS ASYNC id 1394 INVNO 1
READ THREADID 3 VARCLASS LOCAL OFFSET 0x14 VARNAME x VARID c:mythread.h@138@F@task1#I#@x FUNCNAME _Z5task1i SYNCS ASYNC id 1395 INVNO 1
READ THREADID 3 VARCLASS GLOBAL ADDRESS 0x60607c VARNAME a VARID c:@a FUNCNAME _Z5task1i SYNCS ASYNC id 1396 INVNO 1
WRITE THREADID 3 VARCLASS GLOBAL ADDRESS 0x60607c VARNAME a VARID c:@a FUNCNAME _Z5task1i SYNCS ASYNC id 1397 INVNO 1
READ THREADID 3 VARCLASS LOCAL OFFSET 0x4 VARNAME i VARID c:mythread.h@152@F@task1#I#@i FUNCNAME _Z5task1i SYNCS ASYNC id 1398 INVNO 1
READ THREADID 3 VARCLASS LOCAL OFFSET 0x4 VARNAME i VARID c:mythread.h@152@F@task1#I#@i FUNCNAME _Z5task1i SYNCS ASYNC id 1399 INVNO 1
READ THREADID 3 VARCLASS LOCAL OFFSET 0x14 VARNAME x VARID c:mythread.h@138@F@task1#I#@x FUNCNAME _Z5task1i SYNCS ASYNC id 1400 INVNO 1
READ THREADID 3 VARCLASS GLOBAL ADDRESS 0x60607c VARNAME a VARID c:@a FUNCNAME _Z5task1i SYNCS ASYNC id 1401 INVNO 1
WRITE THREADID 3 VARCLASS GLOBAL ADDRESS 0x60607c VARNAME a VARID c:@a FUNCNAME _Z5task1i SYNCS ASYNC id 1402 INVNO 1
READ THREADID 3 VARCLASS LOCAL OFFSET 0x4 VARNAME i VARID c:mythread.h@152@F@task1#I#@i FUNCNAME _Z5task1i SYNCS ASYNC id 1403 INVNO 1
READ THREADID 3 VARCLASS LOCAL OFFSET 0x4 VARNAME i VARID c:mythread.h@152@F@task1#I#@i FUNCNAME _Z5task1i SYNCS ASYNC id 1404 INVNO 1
READ THREADID 3 VARCLASS LOCAL OFFSET 0x14 VARNAME x VARID c:mythread.h@138@F@task1#I#@x FUNCNAME _Z5task1i SYNCS ASYNC id 1405 INVNO 1
READ THREADID 3 VARCLASS GLOBAL ADDRESS 0x60607c VARNAME a VARID c:@a FUNCNAME _Z5task1i SYNCS ASYNC id 1406 INVNO 1
WRITE THREADID 3 VARCLASS GLOBAL ADDRESS 0x60607c VARNAME a VARID c:@a FUNCNAME _Z5task1i SYNCS ASYNC id 1407 INVNO 1
READ THREADID 3 VARCLASS LOCAL OFFSET 0x4 VARNAME i VARID c:mythread.h@152@F@task1#I#@i FUNCNAME _Z5task1i SYNCS ASYNC id 1408 INVNO 1
READ THREADID 3 VARCLASS LOCAL OFFSET 0x4 VARNAME i VARID c:mythread.h@152@F@task1#I#@i FUNCNAME _Z5task1i SYNCS ASYNC id 1409 INVNO 1
READ THREADID 3 VARCLASS LOCAL OFFSET 0x14 VARNAME x VARID c:mythread.h@138@F@task1#I#@x FUNCNAME _Z5task1i SYNCS ASYNC id 1410 INVNO 1
READ THREADID 3 VARCLASS GLOBAL ADDRESS 0x60607c VARNAME a VARID c:@a FUNCNAME _Z5task1i SYNCS ASYNC id 1411 INVNO 1
WRITE THREADID 3 VARCLASS GLOBAL ADDRESS 0x60607c VARNAME a VARID c:@a FUNCNAME _Z5task1i SYNCS ASYNC id 1412 INVNO 1
READ THREADID 3 VARCLASS LOCAL OFFSET 0x4 VARNAME i VARID c:mythread.h@152@F@task1#I#@i FUNCNAME _Z5task1i SYNCS ASYNC id 1413 INVNO 1
READ THREADID 3 VARCLASS LOCAL OFFSET 0x4 VARNAME i VARID c:mythread.h@152@F@task1#I#@i FUNCNAME _Z5task1i SYNCS ASYNC id 1414 INVNO 1
READ THREADID 3 VARCLASS LOCAL OFFSET 0x14 VARNAME x VARID c:mythread.h@138@F@task1#I#@x FUNCNAME _Z5task1i SYNCS ASYNC id 1415 INVNO 1
READ THREADID 3 VARCLASS GLOBAL ADDRESS 0x60607c VARNAME a VARID c:@a FUNCNAME _Z5task1i SYNCS ASYNC id 1416 INVNO 1
WRITE THREADID 3 VARCLASS GLOBAL ADDRESS 0x60607c VARNAME a VARID c:@a FUNCNAME _Z5task1i SYNCS ASYNC id 1417 INVNO 1
READ THREADID 3 VARCLASS LOCAL OFFSET 0x4 VARNAME i VARID c:mythread.h@152@F@task1#I#@i FUNCNAME _Z5task1i SYNCS ASYNC id 1418 INVNO 1
READ THREADID 3 VARCLASS LOCAL OFFSET 0x4 VARNAME i VARID c:mythread.h@152@F@task1#I#@i FUNCNAME _Z5task1i SYNCS ASYNC id 1419 INVNO 1
READ THREADID 3 VARCLASS LOCAL OFFSET 0x14 VARNAME x VARID c:mythread.h@138@F@task1#I#@x FUNCNAME _Z5task1i SYNCS ASYNC id 1420 INVNO 1
READ THREADID 3 VARCLASS GLOBAL ADDRESS 0x60607c VARNAME a VARID c:@a FUNCNAME _Z5task1i SYNCS ASYNC id 1421 INVNO 1
WRITE THREADID 3 VARCLASS GLOBAL ADDRESS 0x60607c VARNAME a VARID c:@a FUNCNAME _Z5task1i SYNCS ASYNC id 1422 INVNO 1
READ THREADID 3 VARCLASS LOCAL OFFSET 0x4 VARNAME i VARID c:mythread.h@152@F@task1#I#@i FUNCNAME _Z5task1i SYNCS ASYNC id 1423 INVNO 1
READ THREADID 3 VARCLASS LOCAL OFFSET 0x4 VARNAME i VARID c:mythread.h@152@F@task1#I#@i FUNCNAME _Z5task1i SYNCS ASYNC id 1424 INVNO 1
READ THREADID 3 VARCLASS LOCAL OFFSET 0x14 VARNAME x VARID c:mythread.h@138@F@task1#I#@x FUNCNAME _Z5task1i SYNCS ASYNC id 1425 INVNO 1
READ THREADID 3 VARCLASS GLOBAL ADDRESS 0x60607c VARNAME a VARID c:@a FUNCNAME _Z5task1i SYNCS ASYNC id 1426 INVNO 1
WRITE THREADID 3 VARCLASS GLOBAL ADDRESS 0x60607c VARNAME a VARID c:@a FUNCNAME _Z5task1i SYNCS ASYNC id 1427 INVNO 1
READ THREADID 3 VARCLASS LOCAL OFFSET 0x4 VARNAME i VARID c:mythread.h@152@F@task1#I#@i FUNCNAME _Z5task1i SYNCS ASYNC id 1428 INVNO 1
READ THREADID 3 VARCLASS LOCAL OFFSET 0x4 VARNAME i VARID c:mythread.h@152@F@task1#I#@i FUNCNAME _Z5task1i SYNCS ASYNC id 1429 INVNO 1
READ THREADID 3 VARCLASS LOCAL OFFSET 0x14 VARNAME x VARID c:mythread.h@138@F@task1#I#@x FUNCNAME _Z5task1i SYNCS ASYNC id 1430 INVNO 1
READ THREADID 3 VARCLASS GLOBAL ADDRESS 0x60607c VARNAME a VARID c:@a FUNCNAME _Z5task1i SYNCS ASYNC id 1431 INVNO 1
WRITE THREADID 3 VARCLASS GLOBAL ADDRESS 0x60607c VARNAME a VARID c:@a FUNCNAME _Z5task1i SYNCS ASYNC id 1432 INVNO 1
READ THREADID 3 VARCLASS LOCAL OFFSET 0x4 VARNAME i VARID c:mythread.h@152@F@task1#I#@i FUNCNAME _Z5task1i SYNCS ASYNC id 1433 INVNO 1
READ THREADID 3 VARCLASS LOCAL OFFSET 0x4 VARNAME i VARID c:mythread.h@152@F@task1#I#@i FUNCNAME _Z5task1i SYNCS ASYNC id 1434 INVNO 1
READ THREADID 3 VARCLASS LOCAL OFFSET 0x14 VARNAME x VARID c:mythread.h@138@F@task1#I#@x FUNCNAME _Z5task1i SYNCS ASYNC id 1435 INVNO 1
READ THREADID 3 VARCLASS GLOBAL ADDRESS 0x60607c VARNAME a VARID c:@a FUNCNAME _Z5task1i SYNCS ASYNC id 1436 INVNO 1
WRITE THREADID 3 VARCLASS GLOBAL ADDRESS 0x60607c VARNAME a VARID c:@a FUNCNAME _Z5task1i SYNCS ASYNC id 1437 INVNO 1
READ THREADID 3 VARCLASS LOCAL OFFSET 0x4 VARNAME i VARID c:mythread.h@152@F@task1#I#@i FUNCNAME _Z5task1i SYNCS ASYNC id 1438 INVNO 1
READ THREADID 3 VARCLASS LOCAL OFFSET 0x4 VARNAME i VARID c:mythread.h@152@F@task1#I#@i FUNCNAME _Z5task1i SYNCS ASYNC id 1439 INVNO 1
READ THREADID 3 VARCLASS LOCAL OFFSET 0x14 VARNAME x VARID c:mythread.h@138@F@task1#I#@x FUNCNAME _Z5task1i SYNCS ASYNC id 1440 INVNO 1
READ THREADID 3 VARCLASS GLOBAL ADDRESS 0x60607c VARNAME a VARID c:@a FUNCNAME _Z5task1i SYNCS ASYNC id 1441 INVNO 1
WRITE THREADID 3 VARCLASS GLOBAL ADDRESS 0x60607c VARNAME a VARID c:@a FUNCNAME _Z5task1i SYNCS ASYNC id 1442 INVNO 1
READ THREADID 3 VARCLASS LOCAL OFFSET 0x4 VARNAME i VARID c:mythread.h@152@F@task1#I#@i FUNCNAME _Z5task1i SYNCS ASYNC id 1443 INVNO 1
READ THREADID 3 VARCLASS LOCAL OFFSET 0x4 VARNAME i VARID c:mythread.h@152@F@task1#I#@i FUNCNAME _Z5task1i SYNCS ASYNC id 1444 INVNO 1
READ THREADID 3 VARCLASS LOCAL OFFSET 0x14 VARNAME x VARID c:mythread.h@138@F@task1#I#@x FUNCNAME _Z5task1i SYNCS ASYNC id 1445 INVNO 1
READ THREADID 3 VARCLASS GLOBAL ADDRESS 0x60607c VARNAME a VARID c:@a FUNCNAME _Z5task1i SYNCS ASYNC id 1446 INVNO 1
WRITE THREADID 3 VARCLASS GLOBAL ADDRESS 0x60607c VARNAME a VARID c:@a FUNCNAME _Z5task1i SYNCS ASYNC id 1447 INVNO 1
READ THREADID 3 VARCLASS LOCAL OFFSET 0x4 VARNAME i VARID c:mythread.h@152@F@task1#I#@i FUNCNAME _Z5task1i SYNCS ASYNC id 1448 INVNO 1
READ THREADID 3 VARCLASS LOCAL OFFSET 0x4 VARNAME i VARID c:mythread.h@152@F@task1#I#@i FUNCNAME _Z5task1i SYNCS ASYNC id 1449 INVNO 1
READ THREADID 3 VARCLASS LOCAL OFFSET 0x14 VARNAME x VARID c:mythread.h@138@F@task1#I#@x FUNCNAME _Z5task1i SYNCS ASYNC id 1450 INVNO 1
READ THREADID 3 VARCLASS GLOBAL ADDRESS 0x60607c VARNAME a VARID c:@a FUNCNAME _Z5task1i SYNCS ASYNC id 1451 INVNO 1
WRITE THREADID 3 VARCLASS GLOBAL ADDRESS 0x60607c VARNAME a VARID c:@a FUNCNAME _Z5task1i SYNCS ASYNC id 1452 INVNO 1
READ THREADID 3 VARCLASS LOCAL OFFSET 0x4 VARNAME i VARID c:mythread.h@152@F@task1#I#@i FUNCNAME _Z5task1i SYNCS ASYNC id 1453 INVNO 1
READ THREADID 3 VARCLASS LOCAL OFFSET 0x4 VARNAME i VARID c:mythread.h@152@F@task1#I#@i FUNCNAME _Z5task1i SYNCS ASYNC id 1454 INVNO 1
READ THREADID 3 VARCLASS LOCAL OFFSET 0x14 VARNAME x VARID c:mythread.h@138@F@task1#I#@x FUNCNAME _Z5task1i SYNCS ASYNC id 1455 INVNO 1
READ THREADID 3 VARCLASS GLOBAL ADDRESS 0x60607c VARNAME a VARID c:@a FUNCNAME _Z5task1i SYNCS ASYNC id 1456 INVNO 1
WRITE THREADID 3 VARCLASS GLOBAL ADDRESS 0x60607c VARNAME a VARID c:@a FUNCNAME _Z5task1i SYNCS ASYNC id 1457 INVNO 1
READ THREADID 3 VARCLASS LOCAL OFFSET 0x4 VARNAME i VARID c:mythread.h@152@F@task1#I#@i FUNCNAME _Z5task1i SYNCS ASYNC id 1458 INVNO 1
READ THREADID 3 VARCLASS LOCAL OFFSET 0x4 VARNAME i VARID c:mythread.h@152@F@task1#I#@i FUNCNAME _Z5task1i SYNCS ASYNC id 1459 INVNO 1
READ THREADID 3 VARCLASS LOCAL OFFSET 0x14 VARNAME x VARID c:mythread.h@138@F@task1#I#@x FUNCNAME _Z5task1i SYNCS ASYNC id 1460 INVNO 1
READ THREADID 3 VARCLASS GLOBAL ADDRESS 0x60607c VARNAME a VARID c:@a FUNCNAME _Z5task1i SYNCS ASYNC id 1461 INVNO 1
WRITE THREADID 3 VARCLASS GLOBAL ADDRESS 0x60607c VARNAME a VARID c:@a FUNCNAME _Z5task1i SYNCS ASYNC id 1462 INVNO 1
READ THREADID 3 VARCLASS LOCAL OFFSET 0x4 VARNAME i VARID c:mythread.h@152@F@task1#I#@i FUNCNAME _Z5task1i SYNCS ASYNC id 1463 INVNO 1
READ THREADID 3 VARCLASS LOCAL OFFSET 0x4 VARNAME i VARID c:mythread.h@152@F@task1#I#@i FUNCNAME _Z5task1i SYNCS ASYNC id 1464 INVNO 1
READ THREADID 3 VARCLASS LOCAL OFFSET 0x14 VARNAME x VARID c:mythread.h@138@F@task1#I#@x FUNCNAME _Z5task1i SYNCS ASYNC id 1465 INVNO 1
READ THREADID 3 VARCLASS GLOBAL ADDRESS 0x60607c VARNAME a VARID c:@a FUNCNAME _Z5task1i SYNCS ASYNC id 1466 INVNO 1
WRITE THREADID 3 VARCLASS GLOBAL ADDRESS 0x60607c VARNAME a VARID c:@a FUNCNAME _Z5task1i SYNCS ASYNC id 1467 INVNO 1
READ THREADID 3 VARCLASS LOCAL OFFSET 0x4 VARNAME i VARID c:mythread.h@152@F@task1#I#@i FUNCNAME _Z5task1i SYNCS ASYNC id 1468 INVNO 1
READ THREADID 3 VARCLASS LOCAL OFFSET 0x4 VARNAME i VARID c:mythread.h@152@F@task1#I#@i FUNCNAME _Z5task1i SYNCS ASYNC id 1469 INVNO 1
READ THREADID 3 VARCLASS LOCAL OFFSET 0x14 VARNAME x VARID c:mythread.h@138@F@task1#I#@x FUNCNAME _Z5task1i SYNCS ASYNC id 1470 INVNO 1
READ THREADID 3 VARCLASS GLOBAL ADDRESS 0x60607c VARNAME a VARID c:@a FUNCNAME _Z5task1i SYNCS ASYNC id 1471 INVNO 1
WRITE THREADID 3 VARCLASS GLOBAL ADDRESS 0x60607c VARNAME a VARID c:@a FUNCNAME _Z5task1i SYNCS ASYNC id 1472 INVNO 1
READ THREADID 3 VARCLASS LOCAL OFFSET 0x4 VARNAME i VARID c:mythread.h@152@F@task1#I#@i FUNCNAME _Z5task1i SYNCS ASYNC id 1473 INVNO 1
READ THREADID 3 VARCLASS LOCAL OFFSET 0x4 VARNAME i VARID c:mythread.h@152@F@task1#I#@i FUNCNAME _Z5task1i SYNCS ASYNC id 1474 INVNO 1
READ THREADID 3 VARCLASS LOCAL OFFSET 0x14 VARNAME x VARID c:mythread.h@138@F@task1#I#@x FUNCNAME _Z5task1i SYNCS ASYNC id 1475 INVNO 1
READ THREADID 3 VARCLASS GLOBAL ADDRESS 0x60607c VARNAME a VARID c:@a FUNCNAME _Z5task1i SYNCS ASYNC id 1476 INVNO 1
WRITE THREADID 3 VARCLASS GLOBAL ADDRESS 0x60607c VARNAME a VARID c:@a FUNCNAME _Z5task1i SYNCS ASYNC id 1477 INVNO 1
READ THREADID 3 VARCLASS LOCAL OFFSET 0x4 VARNAME i VARID c:mythread.h@152@F@task1#I#@i FUNCNAME _Z5task1i SYNCS ASYNC id 1478 INVNO 1
READ THREADID 3 VARCLASS LOCAL OFFSET 0x4 VARNAME i VARID c:mythread.h@152@F@task1#I#@i FUNCNAME _Z5task1i SYNCS ASYNC id 1479 INVNO 1
READ THREADID 3 VARCLASS LOCAL OFFSET 0x14 VARNAME x VARID c:mythread.h@138@F@task1#I#@x FUNCNAME _Z5task1i SYNCS ASYNC id 1480 INVNO 1
READ THREADID 3 VARCLASS GLOBAL ADDRESS 0x60607c VARNAME a VARID c:@a FUNCNAME _Z5task1i SYNCS ASYNC id 1481 INVNO 1
WRITE THREADID 3 VARCLASS GLOBAL ADDRESS 0x60607c VARNAME a VARID c:@a FUNCNAME _Z5task1i SYNCS ASYNC id 1482 INVNO 1
READ THREADID 3 VARCLASS LOCAL OFFSET 0x4 VARNAME i VARID c:mythread.h@152@F@task1#I#@i FUNCNAME _Z5task1i SYNCS ASYNC id 1483 INVNO 1
READ THREADID 3 VARCLASS LOCAL OFFSET 0x4 VARNAME i VARID c:mythread.h@152@F@task1#I#@i FUNCNAME _Z5task1i SYNCS ASYNC id 1484 INVNO 1
READ THREADID 3 VARCLASS LOCAL OFFSET 0x14 VARNAME x VARID c:mythread.h@138@F@task1#I#@x FUNCNAME _Z5task1i SYNCS ASYNC id 1485 INVNO 1
READ THREADID 3 VARCLASS GLOBAL ADDRESS 0x60607c VARNAME a VARID c:@a FUNCNAME _Z5task1i SYNCS ASYNC id 1486 INVNO 1
WRITE THREADID 3 VARCLASS GLOBAL ADDRESS 0x60607c VARNAME a VARID c:@a FUNCNAME _Z5task1i SYNCS ASYNC id 1487 INVNO 1
READ THREADID 3 VARCLASS LOCAL OFFSET 0x4 VARNAME i VARID c:mythread.h@152@F@task1#I#@i FUNCNAME _Z5task1i SYNCS ASYNC id 1488 INVNO 1
READ THREADID 3 VARCLASS LOCAL OFFSET 0x4 VARNAME i VARID c:mythread.h@152@F@task1#I#@i FUNCNAME _Z5task1i SYNCS ASYNC id 1489 INVNO 1
READ THREADID 3 VARCLASS LOCAL OFFSET 0x14 VARNAME x VARID c:mythread.h@138@F@task1#I#@x FUNCNAME _Z5task1i SYNCS ASYNC id 1490 INVNO 1
READ THREADID 3 VARCLASS GLOBAL ADDRESS 0x60607c VARNAME a VARID c:@a FUNCNAME _Z5task1i SYNCS ASYNC id 1491 INVNO 1
WRITE THREADID 3 VARCLASS GLOBAL ADDRESS 0x60607c VARNAME a VARID c:@a FUNCNAME _Z5task1i SYNCS ASYNC id 1492 INVNO 1
READ THREADID 3 VARCLASS LOCAL OFFSET 0x4 VARNAME i VARID c:mythread.h@152@F@task1#I#@i FUNCNAME _Z5task1i SYNCS ASYNC id 1493 INVNO 1
READ THREADID 3 VARCLASS LOCAL OFFSET 0x4 VARNAME i VARID c:mythread.h@152@F@task1#I#@i FUNCNAME _Z5task1i SYNCS ASYNC id 1494 INVNO 1
READ THREADID 3 VARCLASS LOCAL OFFSET 0x14 VARNAME x VARID c:mythread.h@138@F@task1#I#@x FUNCNAME _Z5task1i SYNCS ASYNC id 1495 INVNO 1
READ THREADID 3 VARCLASS GLOBAL ADDRESS 0x60607c VARNAME a VARID c:@a FUNCNAME _Z5task1i SYNCS ASYNC id 1496 INVNO 1
WRITE THREADID 3 VARCLASS GLOBAL ADDRESS 0x60607c VARNAME a VARID c:@a FUNCNAME _Z5task1i SYNCS ASYNC id 1497 INVNO 1
READ THREADID 3 VARCLASS LOCAL OFFSET 0x4 VARNAME i VARID c:mythread.h@152@F@task1#I#@i FUNCNAME _Z5task1i SYNCS ASYNC id 1498 INVNO 1
READ THREADID 3 VARCLASS LOCAL OFFSET 0x4 VARNAME i VARID c:mythread.h@152@F@task1#I#@i FUNCNAME _Z5task1i SYNCS ASYNC id 1499 INVNO 1
READ THREADID 3 VARCLASS LOCAL OFFSET 0x14 VARNAME x VARID c:mythread.h@138@F@task1#I#@x FUNCNAME _Z5task1i SYNCS ASYNC id 1500 INVNO 1
READ THREADID 3 VARCLASS GLOBAL ADDRESS 0x60607c VARNAME a VARID c:@a FUNCNAME _Z5task1i SYNCS ASYNC id 1501 INVNO 1
WRITE THREADID 3 VARCLASS GLOBAL ADDRESS 0x60607c VARNAME a VARID c:@a FUNCNAME _Z5task1i SYNCS ASYNC id 1502 INVNO 1
READ THREADID 3 VARCLASS LOCAL OFFSET 0x4 VARNAME i VARID c:mythread.h@152@F@task1#I#@i FUNCNAME _Z5task1i SYNCS ASYNC id 1503 INVNO 1
READ THREADID 3 VARCLASS LOCAL OFFSET 0x4 VARNAME i VARID c:mythread.h@152@F@task1#I#@i FUNCNAME _Z5task1i SYNCS ASYNC id 1504 INVNO 1
READ THREADID 3 VARCLASS LOCAL OFFSET 0x14 VARNAME x VARID c:mythread.h@138@F@task1#I#@x FUNCNAME _Z5task1i SYNCS ASYNC id 1505 INVNO 1
READ THREADID 3 VARCLASS GLOBAL ADDRESS 0x60607c VARNAME a VARID c:@a FUNCNAME _Z5task1i SYNCS ASYNC id 1506 INVNO 1
WRITE THREADID 3 VARCLASS GLOBAL ADDRESS 0x60607c VARNAME a VARID c:@a FUNCNAME _Z5task1i SYNCS ASYNC id 1507 INVNO 1
READ THREADID 3 VARCLASS LOCAL OFFSET 0x4 VARNAME i VARID c:mythread.h@152@F@task1#I#@i FUNCNAME _Z5task1i SYNCS ASYNC id 1508 INVNO 1
READ THREADID 3 VARCLASS LOCAL OFFSET 0x4 VARNAME i VARID c:mythread.h@152@F@task1#I#@i FUNCNAME _Z5task1i SYNCS ASYNC id 1509 INVNO 1
READ THREADID 3 VARCLASS LOCAL OFFSET 0x14 VARNAME x VARID c:mythread.h@138@F@task1#I#@x FUNCNAME _Z5task1i SYNCS ASYNC id 1510 INVNO 1
READ THREADID 3 VARCLASS GLOBAL ADDRESS 0x60607c VARNAME a VARID c:@a FUNCNAME _Z5task1i SYNCS ASYNC id 1511 INVNO 1
WRITE THREADID 3 VARCLASS GLOBAL ADDRESS 0x60607c VARNAME a VARID c:@a FUNCNAME _Z5task1i SYNCS ASYNC id 1512 INVNO 1
READ THREADID 3 VARCLASS LOCAL OFFSET 0x4 VARNAME i VARID c:mythread.h@152@F@task1#I#@i FUNCNAME _Z5task1i SYNCS ASYNC id 1513 INVNO 1
READ THREADID 3 VARCLASS LOCAL OFFSET 0x4 VARNAME i VARID c:mythread.h@152@F@task1#I#@i FUNCNAME _Z5task1i SYNCS ASYNC id 1514 INVNO 1
READ THREADID 3 VARCLASS LOCAL OFFSET 0x14 VARNAME x VARID c:mythread.h@138@F@task1#I#@x FUNCNAME _Z5task1i SYNCS ASYNC id 1515 INVNO 1
READ THREADID 3 VARCLASS GLOBAL ADDRESS 0x60607c VARNAME a VARID c:@a FUNCNAME _Z5task1i SYNCS ASYNC id 1516 INVNO 1
WRITE THREADID 3 VARCLASS GLOBAL ADDRESS 0x60607c VARNAME a VARID c:@a FUNCNAME _Z5task1i SYNCS ASYNC id 1517 INVNO 1
READ THREADID 3 VARCLASS LOCAL OFFSET 0x4 VARNAME i VARID c:mythread.h@152@F@task1#I#@i FUNCNAME _Z5task1i SYNCS ASYNC id 1518 INVNO 1
READ THREADID 3 VARCLASS LOCAL OFFSET 0x4 VARNAME i VARID c:mythread.h@152@F@task1#I#@i FUNCNAME _Z5task1i SYNCS ASYNC id 1519 INVNO 1
READ THREADID 3 VARCLASS LOCAL OFFSET 0x14 VARNAME x VARID c:mythread.h@138@F@task1#I#@x FUNCNAME _Z5task1i SYNCS ASYNC id 1520 INVNO 1
RETURN THREADID 3 FUNCNAME _Z5task1i id 1521 RETVAL void INVNO 1
CALL THREADID 0 CALLERNAME main CALLEENAME _ZNSt6thread4joinEv@plt id 1522 ARGS NONE STATICCALL [	c:@N@std@S@thread@F@join# t3 . join ( )	] INVNO 1
CALL THREADID 0 CALLERNAME main CALLEENAME _ZNSt6threadD1Ev id 1523 ARGS NONE STATICCALL [	] INVNO 1
CALL THREADID 0 CALLERNAME main CALLEENAME _ZNSt6threadD1Ev id 1524 ARGS NONE STATICCALL [	] INVNO 1
CALL THREADID 0 CALLERNAME main CALLEENAME _ZNSt6threadD1Ev id 1525 ARGS NONE STATICCALL [	] INVNO 1
RETURN THREADID 0 FUNCNAME main id 1526 INVNO 1
