WRITE THREADID 0 VARCLASS LOCAL OFFSET 0x24 VARNAME x VARID c:inherit.cpp@188@F@main#@x FUNCNAME main SYNCS ASYNC id 1 INVNO 1
READ THREADID 0 VARCLASS LOCAL OFFSET 0x24 VARNAME x VARID c:inherit.cpp@188@F@main#@x FUNCNAME main SYNCS ASYNC id 2 INVNO 1
READ THREADID 0 VARCLASS LOCAL OFFSET 0x1c VARNAME p VARID c:inherit.cpp@359@F@main#@p FUNCNAME main SYNCS ASYNC id 3 INVNO 1
CALL THREADID 0 CALLERNAME main CALLEENAME _Z3foo7foo_str id 4 ARG0 UNKNOWN STATICCALL [	c:@F@foo#$@S@foo_str# foo ( x )	] INVNO 1
WRITE THREADID 0 VARCLASS LOCAL OFFSET 0x20 VARNAME x VARID c:foo.cpp@93@F@foo#$@S@foo_str#@x FUNCNAME _Z3foo7foo_str SYNCS ASYNC id 5 INVNO 1
READ THREADID 0 VARCLASS LOCAL OFFSET 0x20 VARNAME x VARID c:foo.cpp@93@F@foo#$@S@foo_str#@x FUNCNAME _Z3foo7foo_str SYNCS ASYNC id 6 INVNO 1
WRITE THREADID 0 VARCLASS LOCAL OFFSET 0x20 VARNAME x VARID c:foo.cpp@93@F@foo#$@S@foo_str#@x FUNCNAME _Z3foo7foo_str SYNCS ASYNC id 7 INVNO 1
READ THREADID 0 VARCLASS LOCAL OFFSET 0x20 VARNAME x VARID c:foo.cpp@93@F@foo#$@S@foo_str#@x FUNCNAME _Z3foo7foo_str SYNCS ASYNC id 8 INVNO 1
RETURN THREADID 0 FUNCNAME _Z3foo7foo_str id 9 RETVAL UNKNOWN INVNO 1
WRITE THREADID 0 VARCLASS LOCAL OFFSET 0x30 VARNAME y VARID c:inherit.cpp@223@F@main#@y FUNCNAME main SYNCS ASYNC id 10 INVNO 1
READ THREADID 0 VARCLASS LOCAL OFFSET 0x28 VARNAME x VARID c:inherit.cpp@188@F@main#@x FUNCNAME main SYNCS ASYNC id 11 INVNO 1
WRITE THREADID 0 VARCLASS LOCAL OFFSET 0x28 VARNAME x VARID c:inherit.cpp@188@F@main#@x FUNCNAME main SYNCS ASYNC id 12 INVNO 1
CALL THREADID 0 CALLERNAME main CALLEENAME _ZN5SnakeC1Ev id 13 ARGS NONE STATICCALL [	c:@S@Snake@F@Snake# snake	] INVNO 1
CALL THREADID 0 CALLERNAME _ZN5SnakeC1Ev CALLEENAME _ZN11LivingThingC2Ev id 14 ARGS NONE STATICCALL [	] INVNO 1
WRITE THREADID 0 VARCLASS NONLOCALSTACK VARFUNCNAME main VARFUNCTID 0 VARFUNCINVNO 1 OFFSET 0x37 VARNAME y VARID c:inherit.cpp@223@F@main#@y FUNCNAME _ZN11LivingThingC2Ev SYNCS ASYNC id 15 INVNO 1
RETURN THREADID 0 FUNCNAME _ZN11LivingThingC2Ev id 16 INVNO 1
CALL THREADID 0 CALLERNAME _ZN5SnakeC1Ev CALLEENAME _ZN6AnimalC2Ev id 17 ARGS NONE STATICCALL [	] INVNO 1
WRITE THREADID 0 VARCLASS NONLOCALSTACK VARFUNCNAME main VARFUNCTID 0 VARFUNCINVNO 1 OFFSET 0x50 VARNAME snake VARID c:inherit.cpp@291@F@main#@snake FUNCNAME _ZN6AnimalC2Ev SYNCS ASYNC id 18 INVNO 1
RETURN THREADID 0 FUNCNAME _ZN6AnimalC2Ev id 19 INVNO 1
CALL THREADID 0 CALLERNAME _ZN5SnakeC1Ev CALLEENAME _ZN7ReptileC2Ev id 20 ARGS NONE STATICCALL [	] INVNO 1
WRITE THREADID 0 VARCLASS NONLOCALSTACK VARFUNCNAME main VARFUNCTID 0 VARFUNCINVNO 1 OFFSET 0x38 VARNAME y VARID c:inherit.cpp@223@F@main#@y FUNCNAME _ZN7ReptileC2Ev SYNCS ASYNC id 21 INVNO 1
RETURN THREADID 0 FUNCNAME _ZN7ReptileC2Ev id 22 INVNO 1
WRITE THREADID 0 VARCLASS NONLOCALSTACK VARFUNCNAME main VARFUNCTID 0 VARFUNCINVNO 1 OFFSET 0x50 VARNAME snake VARID c:inherit.cpp@291@F@main#@snake FUNCNAME _ZN5SnakeC1Ev SYNCS ASYNC id 23 INVNO 1
RETURN THREADID 0 FUNCNAME _ZN5SnakeC1Ev id 24 INVNO 1
CALL THREADID 0 CALLERNAME main CALLEENAME _ZN5Snake5crawlEv id 25 ARGS NONE STATICCALL [	c:@S@Snake@F@crawl# snake . crawl ( )	] INVNO 1
CALL THREADID 0 CALLERNAME _ZN5Snake5crawlEv CALLEENAME _ZN6Animal7breatheEv id 26 ARGS NONE STATICCALL [	c:@S@Animal@F@breathe# this -> breathe ( )	] INVNO 1
RETURN THREADID 0 FUNCNAME _ZN6Animal7breatheEv id 27 RETVAL void INVNO 1
WRITE THREADID 0 VARCLASS NONLOCALSTACK VARFUNCNAME main VARFUNCTID 0 VARFUNCINVNO 1 OFFSET 0x38 VARNAME y VARID c:inherit.cpp@223@F@main#@y FUNCNAME _ZN5Snake5crawlEv SYNCS ASYNC id 28 INVNO 1
RETURN THREADID 0 FUNCNAME _ZN5Snake5crawlEv id 29 RETVAL void INVNO 1
CALL THREADID 0 CALLERNAME main CALLEENAME _Znwm@plt id 30 ARGS NONE STATICCALL [	] INVNO 1
CALL THREADID 0 CALLERNAME main CALLEENAME _ZN13DerivedClass1C1Ev id 31 ARGS NONE STATICCALL [	c:@S@DerivedClass1@F@DerivedClass1# DerivedClass1 ( )	] INVNO 1
CALL THREADID 0 CALLERNAME _ZN13DerivedClass1C1Ev CALLEENAME _ZN11ParentClassC2Ev id 32 ARGS NONE STATICCALL [	] INVNO 1
RETURN THREADID 0 FUNCNAME _ZN11ParentClassC2Ev id 33 INVNO 1
RETURN THREADID 0 FUNCNAME _ZN13DerivedClass1C1Ev id 34 INVNO 1
WRITE THREADID 0 VARCLASS LOCAL OFFSET 0x18 VARNAME p VARID c:inherit.cpp@359@F@main#@p FUNCNAME main SYNCS ASYNC id 35 INVNO 1
READ THREADID 0 VARCLASS LOCAL OFFSET 0x18 VARNAME p VARID c:inherit.cpp@359@F@main#@p FUNCNAME main SYNCS ASYNC id 36 INVNO 1
READ THREADID 0 VARCLASS LOCAL OFFSET 0x18 VARNAME p VARID c:inherit.cpp@359@F@main#@p FUNCNAME main SYNCS ASYNC id 37 INVNO 1
RETURN THREADID 0 FUNCNAME _ZN13DerivedClass15helloEv id 38 RETVAL void INVNO 1
CALL THREADID 0 CALLERNAME main CALLEENAME _ZN13DerivedClass1C1Ev id 39 ARGS NONE STATICCALL [	c:@S@DerivedClass1@F@DerivedClass1# d	] INVNO 1
CALL THREADID 0 CALLERNAME _ZN13DerivedClass1C1Ev CALLEENAME _ZN11ParentClassC2Ev id 40 ARGS NONE STATICCALL [	] INVNO 2
WRITE THREADID 0 VARCLASS NONLOCALSTACK VARFUNCNAME main VARFUNCTID 0 VARFUNCINVNO 1 OFFSET 0x70 VARNAME d VARID c:inherit.cpp@448@F@main#@d FUNCNAME _ZN11ParentClassC2Ev SYNCS ASYNC id 41 INVNO 2
RETURN THREADID 0 FUNCNAME _ZN11ParentClassC2Ev id 42 INVNO 2
WRITE THREADID 0 VARCLASS NONLOCALSTACK VARFUNCNAME main VARFUNCTID 0 VARFUNCINVNO 1 OFFSET 0x70 VARNAME d VARID c:inherit.cpp@448@F@main#@d FUNCNAME _ZN13DerivedClass1C1Ev SYNCS ASYNC id 43 INVNO 2
RETURN THREADID 0 FUNCNAME _ZN13DerivedClass1C1Ev id 44 INVNO 2
CALL THREADID 0 CALLERNAME main CALLEENAME _ZN13DerivedClass15helloEi id 45 ARG0 1490413888 STATICCALL [	c:@S@DerivedClass1@F@hello#I# d . hello ( 1 )	] INVNO 1
WRITE THREADID 0 VARCLASS LOCAL OFFSET 0xc VARNAME i VARID c:foo.h@700@S@DerivedClass1@F@hello#I#@i FUNCNAME _ZN13DerivedClass15helloEi SYNCS ASYNC id 46 INVNO 1
READ THREADID 0 VARCLASS LOCAL OFFSET 0xc VARNAME i VARID c:foo.h@700@S@DerivedClass1@F@hello#I#@i FUNCNAME _ZN13DerivedClass15helloEi SYNCS ASYNC id 47 INVNO 1
WRITE THREADID 0 VARCLASS NONLOCALSTACK VARFUNCNAME main VARFUNCTID 0 VARFUNCINVNO 1 OFFSET 0x5c VARNAME snake VARID c:inherit.cpp@291@F@main#@snake FUNCNAME _ZN13DerivedClass15helloEi SYNCS ASYNC id 48 INVNO 1
RETURN THREADID 0 FUNCNAME _ZN13DerivedClass15helloEi id 49 RETVAL void INVNO 1
CALL THREADID 0 CALLERNAME main CALLEENAME _ZN13DerivedClass15helloEd id 50 ARG0 6.95279e-310 STATICCALL [	c:@S@DerivedClass1@F@hello#d# d . hello ( 1.2 )	] INVNO 1
WRITE THREADID 0 VARCLASS LOCAL OFFSET 0x10 VARNAME z VARID c:foo.h@743@S@DerivedClass1@F@hello#d#@z FUNCNAME _ZN13DerivedClass15helloEd SYNCS ASYNC id 51 INVNO 1
READ THREADID 0 VARCLASS NONLOCALSTACK VARFUNCNAME main VARFUNCTID 0 VARFUNCINVNO 1 OFFSET 0x58 VARNAME snake VARID c:inherit.cpp@291@F@main#@snake FUNCNAME _ZN13DerivedClass15helloEd SYNCS ASYNC id 52 INVNO 1
READ THREADID 0 VARCLASS LOCAL OFFSET 0x10 VARNAME z VARID c:foo.h@743@S@DerivedClass1@F@hello#d#@z FUNCNAME _ZN13DerivedClass15helloEd SYNCS ASYNC id 53 INVNO 1
WRITE THREADID 0 VARCLASS NONLOCALSTACK VARFUNCNAME main VARFUNCTID 0 VARFUNCINVNO 1 OFFSET 0x58 VARNAME snake VARID c:inherit.cpp@291@F@main#@snake FUNCNAME _ZN13DerivedClass15helloEd SYNCS ASYNC id 54 INVNO 1
RETURN THREADID 0 FUNCNAME _ZN13DerivedClass15helloEd id 55 RETVAL void INVNO 1
RETURN THREADID 0 FUNCNAME main id 56 RETVAL 0 INVNO 1
