DYNAMICTRACE INP [None] RUNID 0_1 EXE driver.out
CALL THREADID 0 CALLERNAME _GLOBAL__sub_I__ZN3Foo3funEii CALLEENAME _Z41__static_initialization_and_destruction_0ii TS 0_1_1 ARGS NONE STATICCALL [	] INVNO 1
CALL THREADID 0 CALLERNAME _Z41__static_initialization_and_destruction_0ii CALLEENAME _ZN3Foo1BC2Ev TS 0_1_2 ARGS NONE STATICCALL [	] INVNO 1
RETURN THREADID 0 FUNCNAME _ZN3Foo1BC2Ev TS 0_1_3 INVNO 1
CALL THREADID 0 CALLERNAME _Z41__static_initialization_and_destruction_0ii CALLEENAME _ZN3Foo1BC2Ev TS 0_1_4 ARGS NONE STATICCALL [	] INVNO 1
RETURN THREADID 0 FUNCNAME _ZN3Foo1BC2Ev TS 0_1_5 INVNO 2
RETURN THREADID 0 FUNCNAME _Z41__static_initialization_and_destruction_0ii TS 0_1_6 INVNO 1
RETURN THREADID 0 FUNCNAME _GLOBAL__sub_I__ZN3Foo3funEii TS 0_1_7 INVNO 1
CALL THREADID 0 CALLERNAME main CALLEENAME _ZN3Foo3funEii TS 0_1_8 ARG0 1 ARG1 1 STATICCALL [	100328497177 Foo :: fun ( local_p , local_q )	] INVNO 1
WRITE THREADID 0 VARCLASS LOCAL OFFSET 0x4 VARNAME arg_x VARID 101482300345 FUNCNAME _ZN3Foo3funEii SYNCS ASYNC TS 0_1_9 INVNO 1
WRITE THREADID 0 VARCLASS LOCAL OFFSET 0x8 VARNAME arg_y VARID 100592038057 FUNCNAME _ZN3Foo3funEii SYNCS ASYNC TS 0_1_10 INVNO 1
RETURN THREADID 0 FUNCNAME _ZN3Foo3funEii TS 0_1_11 RETVAL void INVNO 1
CALL THREADID 0 CALLERNAME main CALLEENAME _ZN3Foo4tfunIifEEbT_T0_ TS 0_1_12 ARG0 3 ARG1 1 STATICCALL [	101893945422 Foo :: tfun < int , float > ( 3 , 4 )	] INVNO 1
WRITE THREADID 0 VARCLASS LOCAL OFFSET 0x14 VARNAME targ_x VARID 103751686514 FUNCNAME _ZN3Foo4tfunIifEEbT_T0_ SYNCS ASYNC TS 0_1_13 INVNO 1
WRITE THREADID 0 VARCLASS LOCAL OFFSET 0x18 VARNAME targ_y VARID 100166277612 FUNCNAME _ZN3Foo4tfunIifEEbT_T0_ SYNCS ASYNC TS 0_1_14 INVNO 1
READ THREADID 0 VARCLASS LOCAL OFFSET 0x14 VARNAME targ_x VARID 103751686514 FUNCNAME _ZN3Foo4tfunIifEEbT_T0_ SYNCS ASYNC TS 0_1_15 INVNO 1
READ THREADID 0 VARCLASS LOCAL OFFSET 0x18 VARNAME targ_y VARID 100166277612 FUNCNAME _ZN3Foo4tfunIifEEbT_T0_ SYNCS ASYNC TS 0_1_16 INVNO 1
WRITE THREADID 0 VARCLASS LOCAL OFFSET 0x4 VARNAME local_x VARID 102493317994 FUNCNAME _ZN3Foo4tfunIifEEbT_T0_ SYNCS ASYNC TS 0_1_17 INVNO 1
READ THREADID 0 VARCLASS LOCAL OFFSET 0x4 VARNAME local_x VARID 102493317994 FUNCNAME _ZN3Foo4tfunIifEEbT_T0_ SYNCS ASYNC TS 0_1_18 INVNO 1
READ THREADID 0 VARCLASS LOCAL OFFSET 0x14 VARNAME targ_x VARID 103751686514 FUNCNAME _ZN3Foo4tfunIifEEbT_T0_ SYNCS ASYNC TS 0_1_19 INVNO 1
READ THREADID 0 VARCLASS LOCAL OFFSET 0x18 VARNAME targ_y VARID 100166277612 FUNCNAME _ZN3Foo4tfunIifEEbT_T0_ SYNCS ASYNC TS 0_1_20 INVNO 1
RETURN THREADID 0 FUNCNAME _ZN3Foo4tfunIifEEbT_T0_ TS 0_1_21 RETVAL UNKNOWN INVNO 1
CALL THREADID 0 CALLERNAME main CALLEENAME _ZN3Foo4tfunIccEEbT_T0_ TS 0_1_22 ARG0 '' ARG1 '' STATICCALL [	100127248170 Foo :: tfun < char , char > ( 3 , 4 )	] INVNO 1
WRITE THREADID 0 VARCLASS LOCAL OFFSET 0x14 VARNAME targ_x VARID 103751686514 FUNCNAME _ZN3Foo4tfunIccEEbT_T0_ SYNCS ASYNC TS 0_1_23 INVNO 1
WRITE THREADID 0 VARCLASS LOCAL OFFSET 0x18 VARNAME targ_y VARID 100166277612 FUNCNAME _ZN3Foo4tfunIccEEbT_T0_ SYNCS ASYNC TS 0_1_24 INVNO 1
READ THREADID 0 VARCLASS LOCAL OFFSET 0x14 VARNAME targ_x VARID 103751686514 FUNCNAME _ZN3Foo4tfunIccEEbT_T0_ SYNCS ASYNC TS 0_1_25 INVNO 1
READ THREADID 0 VARCLASS LOCAL OFFSET 0x18 VARNAME targ_y VARID 100166277612 FUNCNAME _ZN3Foo4tfunIccEEbT_T0_ SYNCS ASYNC TS 0_1_26 INVNO 1
WRITE THREADID 0 VARCLASS LOCAL OFFSET 0x4 VARNAME local_x VARID 102493317994 FUNCNAME _ZN3Foo4tfunIccEEbT_T0_ SYNCS ASYNC TS 0_1_27 INVNO 1
READ THREADID 0 VARCLASS LOCAL OFFSET 0x4 VARNAME local_x VARID 102493317994 FUNCNAME _ZN3Foo4tfunIccEEbT_T0_ SYNCS ASYNC TS 0_1_28 INVNO 1
READ THREADID 0 VARCLASS LOCAL OFFSET 0x14 VARNAME targ_x VARID 103751686514 FUNCNAME _ZN3Foo4tfunIccEEbT_T0_ SYNCS ASYNC TS 0_1_29 INVNO 1
READ THREADID 0 VARCLASS LOCAL OFFSET 0x18 VARNAME targ_y VARID 100166277612 FUNCNAME _ZN3Foo4tfunIccEEbT_T0_ SYNCS ASYNC TS 0_1_30 INVNO 1
RETURN THREADID 0 FUNCNAME _ZN3Foo4tfunIccEEbT_T0_ TS 0_1_31 RETVAL UNKNOWN INVNO 1
CALL THREADID 0 CALLERNAME main CALLEENAME _ZN3Foo4tfunIffEEbT_T0_ TS 0_1_32 ARG0 3 ARG1 4 STATICCALL [	103500048852 Foo :: tfun < float , float > ( 3 , 4 )	] INVNO 1
WRITE THREADID 0 VARCLASS LOCAL OFFSET 0x4 VARNAME x VARID 102145911485 FUNCNAME _ZN3Foo4tfunIffEEbT_T0_ SYNCS ASYNC TS 0_1_33 INVNO 1
WRITE THREADID 0 VARCLASS LOCAL OFFSET 0x8 VARNAME y VARID 102201138584 FUNCNAME _ZN3Foo4tfunIffEEbT_T0_ SYNCS ASYNC TS 0_1_34 INVNO 1
READ THREADID 0 VARCLASS LOCAL OFFSET 0x4 VARNAME x VARID 102145911485 FUNCNAME _ZN3Foo4tfunIffEEbT_T0_ SYNCS ASYNC TS 0_1_35 INVNO 1
READ THREADID 0 VARCLASS LOCAL OFFSET 0x8 VARNAME y VARID 102201138584 FUNCNAME _ZN3Foo4tfunIffEEbT_T0_ SYNCS ASYNC TS 0_1_36 INVNO 1
RETURN THREADID 0 FUNCNAME _ZN3Foo4tfunIffEEbT_T0_ TS 0_1_37 RETVAL UNKNOWN INVNO 1
RETURN THREADID 0 FUNCNAME main TS 0_1_38 RETVAL 0 INVNO 1
