CALL THREADID 0 CALLERNAME _GLOBAL__sub_I__ZN3Foo3funEii CALLEENAME _Z41__static_initialization_and_destruction_0ii id 1 ARGS NONE STATICCALL [	] INVNO 1
CALL THREADID 0 CALLERNAME _Z41__static_initialization_and_destruction_0ii CALLEENAME _ZN3Foo1BC2Ev id 2 ARGS NONE STATICCALL [	] INVNO 1
RETURN THREADID 0 FUNCNAME _ZN3Foo1BC2Ev id 3 INVNO 1
CALL THREADID 0 CALLERNAME _Z41__static_initialization_and_destruction_0ii CALLEENAME _ZN3Foo1BC2Ev id 4 ARGS NONE STATICCALL [	] INVNO 1
RETURN THREADID 0 FUNCNAME _ZN3Foo1BC2Ev id 5 INVNO 2
RETURN THREADID 0 FUNCNAME _Z41__static_initialization_and_destruction_0ii id 6 INVNO 1
RETURN THREADID 0 FUNCNAME _GLOBAL__sub_I__ZN3Foo3funEii id 7 INVNO 1
WRITE THREADID 0 VARCLASS LOCAL OFFSET 0x4 VARNAME local_p VARID 101880693474 FUNCNAME main SYNCS ASYNC id 8 INVNO 1
WRITE THREADID 0 VARCLASS LOCAL OFFSET 0x8 VARNAME local_q VARID 104261832716 FUNCNAME main SYNCS ASYNC id 9 INVNO 1
WRITE THREADID 0 VARCLASS LOCAL OFFSET 0x10 VARNAME omg VARID 102504674150 FUNCNAME main SYNCS ASYNC id 10 INVNO 1
READ THREADID 0 VARCLASS LOCAL OFFSET 0x10 VARNAME omg VARID 102504674150 FUNCNAME main SYNCS ASYNC id 11 INVNO 1
READ THREADID 0 VARCLASS LOCAL OFFSET 0x8 VARNAME local_q VARID 104261832716 FUNCNAME main SYNCS ASYNC id 12 INVNO 1
READ THREADID 0 VARCLASS LOCAL OFFSET 0x4 VARNAME local_p VARID 101880693474 FUNCNAME main SYNCS ASYNC id 13 INVNO 1
CALL THREADID 0 CALLERNAME main CALLEENAME _ZN3Foo3funEii id 14 ARG0 1 ARG1 1 STATICCALL [	101207936688 Foo :: fun ( local_p , local_q )	] INVNO 1
WRITE THREADID 0 VARCLASS LOCAL OFFSET 0x4 VARNAME arg_x VARID 102276798112 FUNCNAME _ZN3Foo3funEii SYNCS ASYNC id 15 INVNO 1
WRITE THREADID 0 VARCLASS LOCAL OFFSET 0x8 VARNAME arg_y VARID 102557404432 FUNCNAME _ZN3Foo3funEii SYNCS ASYNC id 16 INVNO 1
RETURN THREADID 0 FUNCNAME _ZN3Foo3funEii id 17 RETVAL void INVNO 1
CALL THREADID 0 CALLERNAME main CALLEENAME _ZN3Foo4tfunIifEEbT_T0_ id 18 ARGS NONE STATICCALL [	103727550007 Foo :: tfun < int , float > ( 3 , 4 )	] INVNO 1
RETURN THREADID 0 FUNCNAME _ZN3Foo4tfunIifEEbT_T0_ id 19 INVNO 1
CALL THREADID 0 CALLERNAME main CALLEENAME _ZN3Foo4tfunIccEEbT_T0_ id 20 ARGS NONE STATICCALL [	101326770491 Foo :: tfun < char , char > ( 3 , 4 )	] INVNO 1
RETURN THREADID 0 FUNCNAME _ZN3Foo4tfunIccEEbT_T0_ id 21 INVNO 1
CALL THREADID 0 CALLERNAME main CALLEENAME _ZN3Foo4tfunIffEEbT_T0_ id 22 ARGS NONE STATICCALL [	101680784468 Foo :: tfun < float , float > ( 3 , 4 )	] INVNO 1
WRITE THREADID 0 VARCLASS LOCAL OFFSET 0x4 VARNAME x VARID 101815388259 FUNCNAME _ZN3Foo4tfunIffEEbT_T0_ SYNCS ASYNC id 23 INVNO 1
WRITE THREADID 0 VARCLASS LOCAL OFFSET 0x8 VARNAME y VARID 102268972211 FUNCNAME _ZN3Foo4tfunIffEEbT_T0_ SYNCS ASYNC id 24 INVNO 1
READ THREADID 0 VARCLASS LOCAL OFFSET 0x4 VARNAME x VARID 101815388259 FUNCNAME _ZN3Foo4tfunIffEEbT_T0_ SYNCS ASYNC id 25 INVNO 1
READ THREADID 0 VARCLASS LOCAL OFFSET 0x8 VARNAME y VARID 102268972211 FUNCNAME _ZN3Foo4tfunIffEEbT_T0_ SYNCS ASYNC id 26 INVNO 1
RETURN THREADID 0 FUNCNAME _ZN3Foo4tfunIffEEbT_T0_ id 27 INVNO 1
RETURN THREADID 0 FUNCNAME main id 28 RETVAL 0 INVNO 1
