WRITE THREADID 0 VARCLASS LOCAL OFFSET 0x24 VARNAME x VARID 103710785351 FUNCNAME main SYNCS ASYNC id 1 INVNO 1
READ THREADID 0 VARCLASS LOCAL OFFSET 0x24 VARNAME x VARID 103710785351 FUNCNAME main SYNCS ASYNC id 2 INVNO 1
READ THREADID 0 VARCLASS LOCAL OFFSET 0x1c VARNAME p VARID 103023250317 FUNCNAME main SYNCS ASYNC id 3 INVNO 1
CALL THREADID 0 CALLERNAME main CALLEENAME _Z3foo7foo_str@plt id 4 ARGS NONE STATICCALL [	101915148486 foo ( x )	] INVNO 1
WRITE THREADID 0 VARCLASS LOCAL OFFSET 0x20 VARNAME x VARID 202708070049 FUNCNAME _Z3foo7foo_str SYNCS ASYNC id 5 INVNO 1
READ THREADID 0 VARCLASS LOCAL OFFSET 0x20 VARNAME x VARID 202708070049 FUNCNAME _Z3foo7foo_str SYNCS ASYNC id 6 INVNO 1
WRITE THREADID 0 VARCLASS LOCAL OFFSET 0x20 VARNAME x VARID 202708070049 FUNCNAME _Z3foo7foo_str SYNCS ASYNC id 7 INVNO 1
READ THREADID 0 VARCLASS LOCAL OFFSET 0x20 VARNAME x VARID 202708070049 FUNCNAME _Z3foo7foo_str SYNCS ASYNC id 8 INVNO 1
RETURN THREADID 0 FUNCNAME _Z3foo7foo_str id 9 RETVAL UNKNOWN INVNO 1
WRITE THREADID 0 VARCLASS LOCAL OFFSET 0x30 VARNAME y VARID 100910071813 FUNCNAME main SYNCS ASYNC id 10 INVNO 1
READ THREADID 0 VARCLASS LOCAL OFFSET 0x28 VARNAME x VARID 103710785351 FUNCNAME main SYNCS ASYNC id 11 INVNO 1
WRITE THREADID 0 VARCLASS LOCAL OFFSET 0x28 VARNAME x VARID 103710785351 FUNCNAME main SYNCS ASYNC id 12 INVNO 1
CALL THREADID 0 CALLERNAME main CALLEENAME _ZN5SnakeC1Ev id 13 ARGS NONE STATICCALL [	101224212769 snake	] INVNO 1
CALL THREADID 0 CALLERNAME _ZN5SnakeC1Ev CALLEENAME _ZN11LivingThingC2Ev id 14 ARGS NONE STATICCALL [	] INVNO 1
WRITE THREADID 0 VARCLASS NONLOCALSTACK VARFUNCNAME main VARFUNCTID 0 VARFUNCINVNO 1 OFFSET 0x34 VARNAME y VARID 100910071813 FUNCNAME _ZN11LivingThingC2Ev SYNCS ASYNC id 15 INVNO 1
RETURN THREADID 0 FUNCNAME _ZN11LivingThingC2Ev id 16 INVNO 1
CALL THREADID 0 CALLERNAME _ZN5SnakeC1Ev CALLEENAME _ZN6AnimalC2Ev id 17 ARGS NONE STATICCALL [	] INVNO 1
WRITE THREADID 0 VARCLASS NONLOCALSTACK VARFUNCNAME main VARFUNCTID 0 VARFUNCINVNO 1 OFFSET 0x70 VARNAME snake VARID 100517983364 FUNCNAME _ZN6AnimalC2Ev SYNCS ASYNC id 18 INVNO 1
RETURN THREADID 0 FUNCNAME _ZN6AnimalC2Ev id 19 INVNO 1
CALL THREADID 0 CALLERNAME _ZN5SnakeC1Ev CALLEENAME _ZN7ReptileC2Ev id 20 ARGS NONE STATICCALL [	] INVNO 1
RETURN THREADID 0 FUNCNAME _ZN7ReptileC2Ev id 21 INVNO 1
CALL THREADID 0 CALLERNAME _ZN5SnakeC1Ev CALLEENAME _ZN11ParentClassC1Ev id 22 ARGS NONE STATICCALL [	] INVNO 1
RETURN THREADID 0 FUNCNAME _ZN11ParentClassC1Ev id 23 INVNO 1
WRITE THREADID 0 VARCLASS NONLOCALSTACK VARFUNCNAME main VARFUNCTID 0 VARFUNCINVNO 1 OFFSET 0x70 VARNAME snake VARID 100517983364 FUNCNAME _ZN5SnakeC1Ev SYNCS ASYNC id 24 INVNO 1
RETURN THREADID 0 FUNCNAME _ZN5SnakeC1Ev id 25 INVNO 1
CALL THREADID 0 CALLERNAME main CALLEENAME _ZN5Snake5crawlEv@plt id 26 ARGS NONE STATICCALL [	100525186939 snake . crawl ( )	] INVNO 1
RETURN THREADID 0 FUNCNAME _ZN6Animal7breatheEv id 27 RETVAL void INVNO 1
RETURN THREADID 0 FUNCNAME _ZN5Snake5crawlEv id 28 RETVAL void INVNO 1
CALL THREADID 0 CALLERNAME main CALLEENAME _Znwm@plt id 29 ARGS NONE STATICCALL [	] INVNO 1
CALL THREADID 0 CALLERNAME main CALLEENAME _ZN13DerivedClass1C2Ev id 30 ARGS NONE STATICCALL [	] INVNO 1
CALL THREADID 0 CALLERNAME _ZN13DerivedClass1C2Ev CALLEENAME _ZN11ParentClassC1Ev id 31 ARGS NONE STATICCALL [	] INVNO 1
RETURN THREADID 0 FUNCNAME _ZN11ParentClassC1Ev id 32 INVNO 2
RETURN THREADID 0 FUNCNAME _ZN13DerivedClass1C2Ev id 33 INVNO 1
WRITE THREADID 0 VARCLASS LOCAL OFFSET 0x18 VARNAME p VARID 103023250317 FUNCNAME main SYNCS ASYNC id 34 INVNO 1
READ THREADID 0 VARCLASS LOCAL OFFSET 0x18 VARNAME p VARID 103023250317 FUNCNAME main SYNCS ASYNC id 35 INVNO 1
READ THREADID 0 VARCLASS LOCAL OFFSET 0x18 VARNAME p VARID 103023250317 FUNCNAME main SYNCS ASYNC id 36 INVNO 1
RETURN THREADID 0 FUNCNAME _ZN13DerivedClass15helloEv id 37 RETVAL void INVNO 1
CALL THREADID 0 CALLERNAME main CALLEENAME _ZN13DerivedClass1C2Ev id 38 ARGS NONE STATICCALL [	] INVNO 1
CALL THREADID 0 CALLERNAME _ZN13DerivedClass1C2Ev CALLEENAME _ZN11ParentClassC1Ev id 39 ARGS NONE STATICCALL [	] INVNO 2
WRITE THREADID 0 VARCLASS NONLOCALSTACK VARFUNCNAME main VARFUNCTID 0 VARFUNCINVNO 1 OFFSET 0x90 VARNAME d VARID 103301422257 FUNCNAME _ZN11ParentClassC1Ev SYNCS ASYNC id 40 INVNO 3
RETURN THREADID 0 FUNCNAME _ZN11ParentClassC1Ev id 41 INVNO 3
WRITE THREADID 0 VARCLASS NONLOCALSTACK VARFUNCNAME main VARFUNCTID 0 VARFUNCINVNO 1 OFFSET 0x90 VARNAME d VARID 103301422257 FUNCNAME _ZN13DerivedClass1C2Ev SYNCS ASYNC id 42 INVNO 2
RETURN THREADID 0 FUNCNAME _ZN13DerivedClass1C2Ev id 43 INVNO 2
CALL THREADID 0 CALLERNAME main CALLEENAME _ZN13DerivedClass15helloEi id 44 ARG0 1237635040 STATICCALL [	100402537114 d . hello ( 1 )	] INVNO 1
WRITE THREADID 0 VARCLASS LOCAL OFFSET 0xc VARNAME i VARID 100873988678 FUNCNAME _ZN13DerivedClass15helloEi SYNCS ASYNC id 45 INVNO 1
WRITE THREADID 0 VARCLASS LOCAL OFFSET 0xc VARNAME i VARID 100873988678 FUNCNAME _ZN13DerivedClass15helloEi SYNCS ASYNC id 46 INVNO 1
READ THREADID 0 VARCLASS LOCAL OFFSET 0xc VARNAME i VARID 100873988678 FUNCNAME _ZN13DerivedClass15helloEi SYNCS ASYNC id 47 INVNO 1
WRITE THREADID 0 VARCLASS NONLOCALSTACK VARFUNCNAME main VARFUNCTID 0 VARFUNCINVNO 1 OFFSET 0x7c VARNAME snake VARID 100517983364 FUNCNAME _ZN13DerivedClass15helloEi SYNCS ASYNC id 48 INVNO 1
RETURN THREADID 0 FUNCNAME _ZN13DerivedClass15helloEi id 49 RETVAL void INVNO 1
CALL THREADID 0 CALLERNAME main CALLEENAME _ZN13DerivedClass15helloEd id 50 ARG0 6.9532e-310 STATICCALL [	100949407972 d . hello ( 1.2 )	] INVNO 1
WRITE THREADID 0 VARCLASS LOCAL OFFSET 0x10 VARNAME z VARID 101815403230 FUNCNAME _ZN13DerivedClass15helloEd SYNCS ASYNC id 51 INVNO 1
READ THREADID 0 VARCLASS NONLOCALSTACK VARFUNCNAME main VARFUNCTID 0 VARFUNCINVNO 1 OFFSET 0x78 VARNAME snake VARID 100517983364 FUNCNAME _ZN13DerivedClass15helloEd SYNCS ASYNC id 52 INVNO 1
READ THREADID 0 VARCLASS LOCAL OFFSET 0x10 VARNAME z VARID 101815403230 FUNCNAME _ZN13DerivedClass15helloEd SYNCS ASYNC id 53 INVNO 1
WRITE THREADID 0 VARCLASS NONLOCALSTACK VARFUNCNAME main VARFUNCTID 0 VARFUNCINVNO 1 OFFSET 0x78 VARNAME snake VARID 100517983364 FUNCNAME _ZN13DerivedClass15helloEd SYNCS ASYNC id 54 INVNO 1
RETURN THREADID 0 FUNCNAME _ZN13DerivedClass15helloEd id 55 RETVAL void INVNO 1
RETURN THREADID 0 FUNCNAME main id 56 RETVAL 0 INVNO 1
