DYNAMICTRACE INP [None] RUNID 0_1 EXE inherit
WRITE THREADID 0 VARCLASS LOCAL OFFSET 0x24 VARNAME x VARID 200485445135 FUNCNAME main SYNCS ASYNC INSLOC /data/user-home/srijoni/PIN_Tests/smartKT/testsuite/inherit/src/inherit.cpp:15 TS 0_1_1 INVNO 1
READ THREADID 0 VARCLASS LOCAL OFFSET 0x24 VARNAME x VARID 200485445135 FUNCNAME main SYNCS ASYNC INSLOC /data/user-home/srijoni/PIN_Tests/smartKT/testsuite/inherit/src/inherit.cpp:17 TS 0_1_2 INVNO 1
READ THREADID 0 VARCLASS LOCAL OFFSET 0x1c VARNAME x VARID 200485445135 FUNCNAME main SYNCS ASYNC INSLOC /data/user-home/srijoni/PIN_Tests/smartKT/testsuite/inherit/src/inherit.cpp:17 TS 0_1_3 INVNO 1
CALL THREADID 0 CALLERNAME main CALLEENAME _Z3foo7foo_str@plt TS 0_1_4 ARGS NONE STATICCALL [	204252018934 foo( x )	] INSLOC /data/user-home/srijoni/PIN_Tests/smartKT/testsuite/inherit/src/inherit.cpp:17 INVNO 1
WRITE THREADID 0 VARCLASS LOCAL OFFSET 0x20 VARNAME x VARID 103017558662 FUNCNAME _Z3foo7foo_str SYNCS ASYNC INSLOC /data/user-home/srijoni/PIN_Tests/smartKT/testsuite/inherit/lib/foo.cpp:4 TS 0_1_5 INVNO 1
WRITE THREADID 0 VARCLASS LOCAL OFFSET 0x18 VARNAME x VARID 103017558662 FUNCNAME _Z3foo7foo_str SYNCS ASYNC INSLOC /data/user-home/srijoni/PIN_Tests/smartKT/testsuite/inherit/lib/foo.cpp:4 TS 0_1_6 INVNO 1
READ THREADID 0 VARCLASS LOCAL OFFSET 0x20 VARNAME x VARID 103017558662 FUNCNAME _Z3foo7foo_str SYNCS ASYNC INSLOC /data/user-home/srijoni/PIN_Tests/smartKT/testsuite/inherit/lib/foo.cpp:5 TS 0_1_7 INVNO 1
WRITE THREADID 0 VARCLASS LOCAL OFFSET 0x20 VARNAME x VARID 103017558662 FUNCNAME _Z3foo7foo_str SYNCS ASYNC INSLOC /data/user-home/srijoni/PIN_Tests/smartKT/testsuite/inherit/lib/foo.cpp:5 TS 0_1_8 INVNO 1
READ THREADID 0 VARCLASS LOCAL OFFSET 0x20 VARNAME x VARID 103017558662 FUNCNAME _Z3foo7foo_str SYNCS ASYNC INSLOC /data/user-home/srijoni/PIN_Tests/smartKT/testsuite/inherit/lib/foo.cpp:6 TS 0_1_9 INVNO 1
READ THREADID 0 VARCLASS LOCAL OFFSET 0x18 VARNAME x VARID 103017558662 FUNCNAME _Z3foo7foo_str SYNCS ASYNC INSLOC /data/user-home/srijoni/PIN_Tests/smartKT/testsuite/inherit/lib/foo.cpp:6 TS 0_1_10 INVNO 1
RETURN THREADID 0 FUNCNAME _Z3foo7foo_str TS 0_1_11 RETVAL UNKNOWN INSLOC /data/user-home/srijoni/PIN_Tests/smartKT/testsuite/inherit/lib/foo.cpp:7 INVNO 1
WRITE THREADID 0 VARCLASS LOCAL OFFSET 0x30 VARNAME y VARID 202863592937 FUNCNAME main SYNCS ASYNC INSLOC /data/user-home/srijoni/PIN_Tests/smartKT/testsuite/inherit/src/inherit.cpp:17 TS 0_1_12 INVNO 1
READ THREADID 0 VARCLASS LOCAL OFFSET 0x28 VARNAME y VARID 202863592937 FUNCNAME main SYNCS ASYNC INSLOC /data/user-home/srijoni/PIN_Tests/smartKT/testsuite/inherit/src/inherit.cpp:17 TS 0_1_13 INVNO 1
WRITE THREADID 0 VARCLASS LOCAL OFFSET 0x28 VARNAME y VARID 202863592937 FUNCNAME main SYNCS ASYNC INSLOC /data/user-home/srijoni/PIN_Tests/smartKT/testsuite/inherit/src/inherit.cpp:17 TS 0_1_14 INVNO 1
CALL THREADID 0 CALLERNAME main CALLEENAME _ZN6nonstd5SnakeC1Ev TS 0_1_15 ARGS NONE STATICCALL [	200298409689 snake	] INSLOC /data/user-home/srijoni/PIN_Tests/smartKT/testsuite/inherit/src/inherit.cpp:19 INVNO 1
CALL THREADID 0 CALLERNAME _ZN6nonstd5SnakeC1Ev CALLEENAME _ZN6nonstd11LivingThingC1Ev TS 0_1_16 ARGS NONE STATICCALL [	] INSLOC /data/user-home/srijoni/PIN_Tests/smartKT/testsuite/inherit/lib/foo.h:109 INVNO 1
WRITE THREADID 0 VARCLASS NONLOCALSTACK VARFUNCNAME main VARFUNCTID 0 VARFUNCINVNO 1 OFFSET 0x34 VARNAME snake VARID 204229739147 FUNCNAME _ZN6nonstd11LivingThingC1Ev SYNCS ASYNC INSLOC /data/user-home/srijoni/PIN_Tests/smartKT/testsuite/inherit/lib/foo.h:80 TS 0_1_17 INVNO 1
RETURN THREADID 0 FUNCNAME _ZN6nonstd11LivingThingC1Ev TS 0_1_18 INSLOC /data/user-home/srijoni/PIN_Tests/smartKT/testsuite/inherit/lib/foo.h:81 INVNO 1
CALL THREADID 0 CALLERNAME _ZN6nonstd5SnakeC1Ev CALLEENAME _ZN6nonstd6AnimalC2Ev TS 0_1_19 ARGS NONE STATICCALL [	] INSLOC /data/user-home/srijoni/PIN_Tests/smartKT/testsuite/inherit/lib/foo.h:109 INVNO 1
WRITE THREADID 0 VARCLASS NONLOCALSTACK VARFUNCNAME main VARFUNCTID 0 VARFUNCINVNO 1 OFFSET 0x70 VARNAME snake VARID 204229739147 FUNCNAME _ZN6nonstd6AnimalC2Ev SYNCS ASYNC INSLOC /data/user-home/srijoni/PIN_Tests/smartKT/testsuite/inherit/lib/foo.h:91 TS 0_1_20 INVNO 1
WRITE THREADID 0 VARCLASS NONLOCALSTACK VARFUNCNAME main VARFUNCTID 0 VARFUNCINVNO 1 OFFSET 0x68 VARNAME snake VARID 204229739147 FUNCNAME _ZN6nonstd6AnimalC2Ev SYNCS ASYNC INSLOC /data/user-home/srijoni/PIN_Tests/smartKT/testsuite/inherit/lib/foo.h:92 TS 0_1_21 INVNO 1
RETURN THREADID 0 FUNCNAME _ZN6nonstd6AnimalC2Ev TS 0_1_22 INSLOC /data/user-home/srijoni/PIN_Tests/smartKT/testsuite/inherit/lib/foo.h:93 INVNO 1
CALL THREADID 0 CALLERNAME _ZN6nonstd5SnakeC1Ev CALLEENAME _ZN6nonstd7ReptileC2Ev TS 0_1_23 ARGS NONE STATICCALL [	] INSLOC /data/user-home/srijoni/PIN_Tests/smartKT/testsuite/inherit/lib/foo.h:109 INVNO 1
WRITE THREADID 0 VARCLASS NONLOCALSTACK VARFUNCNAME main VARFUNCTID 0 VARFUNCINVNO 1 OFFSET 0x60 VARNAME snake VARID 204229739147 FUNCNAME _ZN6nonstd7ReptileC2Ev SYNCS ASYNC INSLOC /data/user-home/srijoni/PIN_Tests/smartKT/testsuite/inherit/lib/foo.h:100 TS 0_1_24 INVNO 1
WRITE THREADID 0 VARCLASS NONLOCALSTACK VARFUNCNAME main VARFUNCTID 0 VARFUNCINVNO 1 OFFSET 0x58 VARNAME snake VARID 204229739147 FUNCNAME _ZN6nonstd7ReptileC2Ev SYNCS ASYNC INSLOC /data/user-home/srijoni/PIN_Tests/smartKT/testsuite/inherit/lib/foo.h:101 TS 0_1_25 INVNO 1
RETURN THREADID 0 FUNCNAME _ZN6nonstd7ReptileC2Ev TS 0_1_26 INSLOC /data/user-home/srijoni/PIN_Tests/smartKT/testsuite/inherit/lib/foo.h:102 INVNO 1
CALL THREADID 0 CALLERNAME _ZN6nonstd5SnakeC1Ev CALLEENAME _ZN6nonstd11ParentClassC1Ev TS 0_1_27 ARGS NONE STATICCALL [	] INSLOC /data/user-home/srijoni/PIN_Tests/smartKT/testsuite/inherit/lib/foo.h:109 INVNO 1
WRITE THREADID 0 VARCLASS NONLOCALSTACK VARFUNCNAME main VARFUNCTID 0 VARFUNCINVNO 1 OFFSET 0x50 VARNAME snake VARID 204229739147 FUNCNAME _ZN6nonstd11ParentClassC1Ev SYNCS ASYNC INSLOC /data/user-home/srijoni/PIN_Tests/smartKT/testsuite/inherit/lib/foo.h:18 TS 0_1_28 INVNO 1
RETURN THREADID 0 FUNCNAME _ZN6nonstd11ParentClassC1Ev TS 0_1_29 INSLOC /data/user-home/srijoni/PIN_Tests/smartKT/testsuite/inherit/lib/foo.h:18 INVNO 1
WRITE THREADID 0 VARCLASS NONLOCALSTACK VARFUNCNAME main VARFUNCTID 0 VARFUNCINVNO 1 OFFSET 0x70 VARNAME snake VARID 204229739147 FUNCNAME _ZN6nonstd5SnakeC1Ev SYNCS ASYNC INSLOC /data/user-home/srijoni/PIN_Tests/smartKT/testsuite/inherit/lib/foo.h:109 TS 0_1_30 INVNO 1
WRITE THREADID 0 VARCLASS NONLOCALSTACK VARFUNCNAME main VARFUNCTID 0 VARFUNCINVNO 1 OFFSET 0x60 VARNAME snake VARID 204229739147 FUNCNAME _ZN6nonstd5SnakeC1Ev SYNCS ASYNC INSLOC /data/user-home/srijoni/PIN_Tests/smartKT/testsuite/inherit/lib/foo.h:109 TS 0_1_31 INVNO 1
WRITE THREADID 0 VARCLASS NONLOCALSTACK VARFUNCNAME main VARFUNCTID 0 VARFUNCINVNO 1 OFFSET 0x50 VARNAME snake VARID 204229739147 FUNCNAME _ZN6nonstd5SnakeC1Ev SYNCS ASYNC INSLOC /data/user-home/srijoni/PIN_Tests/smartKT/testsuite/inherit/lib/foo.h:109 TS 0_1_32 INVNO 1
RETURN THREADID 0 FUNCNAME _ZN6nonstd5SnakeC1Ev TS 0_1_33 INSLOC /data/user-home/srijoni/PIN_Tests/smartKT/testsuite/inherit/lib/foo.h:109 INVNO 1
CALL THREADID 0 CALLERNAME main CALLEENAME _ZN6nonstd5Snake5crawlEv@plt TS 0_1_34 ARGS NONE STATICCALL [	203234451968 snake. crawl ( )	] INSLOC /data/user-home/srijoni/PIN_Tests/smartKT/testsuite/inherit/src/inherit.cpp:20 INVNO 1
CALL THREADID 0 CALLERNAME _ZN6nonstd5Snake5crawlEv CALLEENAME _ZN6nonstd6Animal7breatheEv@plt TS 0_1_35 ARGS NONE STATICCALL [	102674115443 this-> breathe ( )	] INSLOC /data/user-home/srijoni/PIN_Tests/smartKT/testsuite/inherit/lib/foo.cpp:15 INVNO 1
READ THREADID 0 VARCLASS NONLOCALSTACK VARFUNCNAME main VARFUNCTID 0 VARFUNCINVNO 1 OFFSET 0x68 VARNAME snake VARID 204229739147 FUNCNAME _ZN6nonstd6Animal7breatheEv SYNCS ASYNC INSLOC /data/user-home/srijoni/PIN_Tests/smartKT/testsuite/inherit/lib/foo.h:88 TS 0_1_36 INVNO 1
WRITE THREADID 0 VARCLASS NONLOCALSTACK VARFUNCNAME main VARFUNCTID 0 VARFUNCINVNO 1 OFFSET 0x68 VARNAME snake VARID 204229739147 FUNCNAME _ZN6nonstd6Animal7breatheEv SYNCS ASYNC INSLOC /data/user-home/srijoni/PIN_Tests/smartKT/testsuite/inherit/lib/foo.h:88 TS 0_1_37 INVNO 1
RETURN THREADID 0 FUNCNAME _ZN6nonstd6Animal7breatheEv TS 0_1_38 RETVAL void INSLOC /data/user-home/srijoni/PIN_Tests/smartKT/testsuite/inherit/lib/foo.h:89 INVNO 1
WRITE THREADID 0 VARCLASS NONLOCALSTACK VARFUNCNAME main VARFUNCTID 0 VARFUNCINVNO 1 OFFSET 0x58 VARNAME snake VARID 204229739147 FUNCNAME _ZN6nonstd5Snake5crawlEv SYNCS ASYNC INSLOC /data/user-home/srijoni/PIN_Tests/smartKT/testsuite/inherit/lib/foo.cpp:16 TS 0_1_39 INVNO 1
RETURN THREADID 0 FUNCNAME _ZN6nonstd5Snake5crawlEv TS 0_1_40 RETVAL void INSLOC /data/user-home/srijoni/PIN_Tests/smartKT/testsuite/inherit/lib/foo.cpp:17 INVNO 1
CALL THREADID 0 CALLERNAME main CALLEENAME _Znwm@plt TS 0_1_41 ARGS NONE STATICCALL [	] INSLOC /data/user-home/srijoni/PIN_Tests/smartKT/testsuite/inherit/src/inherit.cpp:23 INVNO 1
CALL THREADID 0 CALLERNAME main CALLEENAME _ZN6nonstd13DerivedClass1C2Ev TS 0_1_42 ARGS NONE STATICCALL [	] INSLOC /data/user-home/srijoni/PIN_Tests/smartKT/testsuite/inherit/src/inherit.cpp:23 INVNO 1
CALL THREADID 0 CALLERNAME _ZN6nonstd13DerivedClass1C2Ev CALLEENAME _ZN6nonstd11ParentClassC1Ev TS 0_1_43 ARGS NONE STATICCALL [	] INSLOC /data/user-home/srijoni/PIN_Tests/smartKT/testsuite/inherit/lib/foo.h:38 INVNO 1
RETURN THREADID 0 FUNCNAME _ZN6nonstd11ParentClassC1Ev TS 0_1_44 INSLOC /data/user-home/srijoni/PIN_Tests/smartKT/testsuite/inherit/lib/foo.h:18 INVNO 2
RETURN THREADID 0 FUNCNAME _ZN6nonstd13DerivedClass1C2Ev TS 0_1_45 INSLOC /data/user-home/srijoni/PIN_Tests/smartKT/testsuite/inherit/lib/foo.h:38 INVNO 1
READ THREADID 0 VARCLASS LOCAL OFFSET 0x18 VARNAME p VARID 203117527266 FUNCNAME main SYNCS ASYNC INSLOC /data/user-home/srijoni/PIN_Tests/smartKT/testsuite/inherit/src/inherit.cpp:24 TS 0_1_46 INVNO 1
READ THREADID 0 VARCLASS LOCAL OFFSET 0x18 VARNAME p VARID 203117527266 FUNCNAME main SYNCS ASYNC INSLOC /data/user-home/srijoni/PIN_Tests/smartKT/testsuite/inherit/src/inherit.cpp:24 TS 0_1_47 INVNO 1
RETURN THREADID 0 FUNCNAME _ZN6nonstd13DerivedClass15helloEv TS 0_1_48 RETVAL void INSLOC /data/user-home/srijoni/PIN_Tests/smartKT/testsuite/inherit/lib/foo.h:43 INVNO 1
CALL THREADID 0 CALLERNAME main CALLEENAME _ZN6nonstd13DerivedClass1C2Ev TS 0_1_49 ARGS NONE STATICCALL [	] INSLOC /data/user-home/srijoni/PIN_Tests/smartKT/testsuite/inherit/src/inherit.cpp:25 INVNO 1
CALL THREADID 0 CALLERNAME _ZN6nonstd13DerivedClass1C2Ev CALLEENAME _ZN6nonstd11ParentClassC1Ev TS 0_1_50 ARGS NONE STATICCALL [	] INSLOC /data/user-home/srijoni/PIN_Tests/smartKT/testsuite/inherit/lib/foo.h:38 INVNO 2
WRITE THREADID 0 VARCLASS NONLOCALSTACK VARFUNCNAME main VARFUNCTID 0 VARFUNCINVNO 1 OFFSET 0x90 VARNAME d VARID 201834873537 FUNCNAME _ZN6nonstd11ParentClassC1Ev SYNCS ASYNC INSLOC /data/user-home/srijoni/PIN_Tests/smartKT/testsuite/inherit/lib/foo.h:18 TS 0_1_51 INVNO 3
RETURN THREADID 0 FUNCNAME _ZN6nonstd11ParentClassC1Ev TS 0_1_52 INSLOC /data/user-home/srijoni/PIN_Tests/smartKT/testsuite/inherit/lib/foo.h:18 INVNO 3
WRITE THREADID 0 VARCLASS NONLOCALSTACK VARFUNCNAME main VARFUNCTID 0 VARFUNCINVNO 1 OFFSET 0x90 VARNAME d VARID 201834873537 FUNCNAME _ZN6nonstd13DerivedClass1C2Ev SYNCS ASYNC INSLOC /data/user-home/srijoni/PIN_Tests/smartKT/testsuite/inherit/lib/foo.h:38 TS 0_1_53 INVNO 2
RETURN THREADID 0 FUNCNAME _ZN6nonstd13DerivedClass1C2Ev TS 0_1_54 INSLOC /data/user-home/srijoni/PIN_Tests/smartKT/testsuite/inherit/lib/foo.h:38 INVNO 2
CALL THREADID 0 CALLERNAME main CALLEENAME _ZN6nonstd13DerivedClass15helloEi TS 0_1_55 ARG0 -1445087296 STATICCALL [	203675412192 d. hello ( 1 )	] INSLOC /data/user-home/srijoni/PIN_Tests/smartKT/testsuite/inherit/src/inherit.cpp:26 INVNO 1
WRITE THREADID 0 VARCLASS LOCAL OFFSET 0xc VARNAME i VARID 200765775504 FUNCNAME _ZN6nonstd13DerivedClass15helloEi SYNCS ASYNC INSLOC /data/user-home/srijoni/PIN_Tests/smartKT/testsuite/inherit/lib/foo.h:45 TS 0_1_56 INVNO 1
WRITE THREADID 0 VARCLASS LOCAL OFFSET 0xc VARNAME i VARID 200765775504 FUNCNAME _ZN6nonstd13DerivedClass15helloEi SYNCS ASYNC INSLOC /data/user-home/srijoni/PIN_Tests/smartKT/testsuite/inherit/lib/foo.h:46 TS 0_1_57 INVNO 1
READ THREADID 0 VARCLASS LOCAL OFFSET 0xc VARNAME i VARID 200765775504 FUNCNAME _ZN6nonstd13DerivedClass15helloEi SYNCS ASYNC INSLOC /data/user-home/srijoni/PIN_Tests/smartKT/testsuite/inherit/lib/foo.h:46 TS 0_1_58 INVNO 1
WRITE THREADID 0 VARCLASS NONLOCALSTACK VARFUNCNAME main VARFUNCTID 0 VARFUNCINVNO 1 OFFSET 0x7c VARNAME d VARID 201834873537 FUNCNAME _ZN6nonstd13DerivedClass15helloEi SYNCS ASYNC INSLOC /data/user-home/srijoni/PIN_Tests/smartKT/testsuite/inherit/lib/foo.h:46 TS 0_1_59 INVNO 1
RETURN THREADID 0 FUNCNAME _ZN6nonstd13DerivedClass15helloEi TS 0_1_60 RETVAL void INSLOC /data/user-home/srijoni/PIN_Tests/smartKT/testsuite/inherit/lib/foo.h:47 INVNO 1
CALL THREADID 0 CALLERNAME main CALLEENAME _ZN6nonstd13DerivedClass15helloEd TS 0_1_61 ARG0 6.95307e-310 STATICCALL [	200544365010 d. hello ( 1.2 )	] INSLOC /data/user-home/srijoni/PIN_Tests/smartKT/testsuite/inherit/src/inherit.cpp:27 INVNO 1
WRITE THREADID 0 VARCLASS LOCAL OFFSET 0x10 VARNAME z VARID 200503938645 FUNCNAME _ZN6nonstd13DerivedClass15helloEd SYNCS ASYNC INSLOC /data/user-home/srijoni/PIN_Tests/smartKT/testsuite/inherit/lib/foo.h:49 TS 0_1_62 INVNO 1
READ THREADID 0 VARCLASS NONLOCALSTACK VARFUNCNAME main VARFUNCTID 0 VARFUNCINVNO 1 OFFSET 0x78 VARNAME d VARID 201834873537 FUNCNAME _ZN6nonstd13DerivedClass15helloEd SYNCS ASYNC INSLOC /data/user-home/srijoni/PIN_Tests/smartKT/testsuite/inherit/lib/foo.h:50 TS 0_1_63 INVNO 1
READ THREADID 0 VARCLASS LOCAL OFFSET 0x10 VARNAME z VARID 200503938645 FUNCNAME _ZN6nonstd13DerivedClass15helloEd SYNCS ASYNC INSLOC /data/user-home/srijoni/PIN_Tests/smartKT/testsuite/inherit/lib/foo.h:50 TS 0_1_64 INVNO 1
WRITE THREADID 0 VARCLASS NONLOCALSTACK VARFUNCNAME main VARFUNCTID 0 VARFUNCINVNO 1 OFFSET 0x78 VARNAME d VARID 201834873537 FUNCNAME _ZN6nonstd13DerivedClass15helloEd SYNCS ASYNC INSLOC /data/user-home/srijoni/PIN_Tests/smartKT/testsuite/inherit/lib/foo.h:50 TS 0_1_65 INVNO 1
RETURN THREADID 0 FUNCNAME _ZN6nonstd13DerivedClass15helloEd TS 0_1_66 RETVAL void INSLOC /data/user-home/srijoni/PIN_Tests/smartKT/testsuite/inherit/lib/foo.h:51 INVNO 1
RETURN THREADID 0 FUNCNAME main TS 0_1_67 RETVAL 0 INSLOC /data/user-home/srijoni/PIN_Tests/smartKT/testsuite/inherit/src/inherit.cpp:30 INVNO 1
