DYNAMICTRACE INP [None] RUNID 0_1 EXE basic
CALL THREADID 0 CALLERNAME _GLOBAL__sub_I_main CALLEENAME _Z41__static_initialization_and_destruction_0ii TS 0_1_1 ARGS NONE STATICCALL [	] INSLOC /data/user-home/srijoni/PIN_Tests/smartKT/testsuite/constructor_basic/basic.cpp:28 INVNO 1
RETURN THREADID 0 FUNCNAME _Z41__static_initialization_and_destruction_0ii TS 0_1_2 INSLOC /data/user-home/srijoni/PIN_Tests/smartKT/testsuite/constructor_basic/basic.cpp:28 INVNO 1
RETURN THREADID 0 FUNCNAME _GLOBAL__sub_I_main TS 0_1_3 INSLOC /data/user-home/srijoni/PIN_Tests/smartKT/testsuite/constructor_basic/basic.cpp:28 INVNO 1
CALL THREADID 0 CALLERNAME main CALLEENAME _ZN1BC1Ei TS 0_1_4 ARGS NONE STATICCALL [	101246613512 b( 5 )	] INSLOC /data/user-home/srijoni/PIN_Tests/smartKT/testsuite/constructor_basic/basic.cpp:23 INVNO 1
CALL THREADID 0 CALLERNAME _ZN1BC1Ei CALLEENAME _ZStlsISt11char_traitsIcEERSt13basic_ostreamIcT_ES5_PKc@plt TS 0_1_5 ARGS NONE STATICCALL [	102806328641 cout<< "B::B(int): "	] INSLOC /data/user-home/srijoni/PIN_Tests/smartKT/testsuite/constructor_basic/basic.cpp:8 INVNO 1
CALL THREADID 0 CALLERNAME _ZN1BC1Ei CALLEENAME _ZNSolsEi@plt TS 0_1_6 ARGS NONE STATICCALL [	102212791327 cout<< "B::B(int): " << data_	] INSLOC /data/user-home/srijoni/PIN_Tests/smartKT/testsuite/constructor_basic/basic.cpp:8 INVNO 1
CALL THREADID 0 CALLERNAME _ZN1BC1Ei CALLEENAME _ZNSolsEPFRSoS_E@plt TS 0_1_7 ARGS NONE STATICCALL [	102473250808 cout<< "B::B(int): " << data_ << endl	] INSLOC /data/user-home/srijoni/PIN_Tests/smartKT/testsuite/constructor_basic/basic.cpp:8 INVNO 1
RETURN THREADID 0 FUNCNAME _ZN1BC1Ei TS 0_1_8 INSLOC /data/user-home/srijoni/PIN_Tests/smartKT/testsuite/constructor_basic/basic.cpp:8 INVNO 1
CALL THREADID 0 CALLERNAME main CALLEENAME _ZN1DC2Eii TS 0_1_9 ARGS NONE STATICCALL [	] INSLOC /data/user-home/srijoni/PIN_Tests/smartKT/testsuite/constructor_basic/basic.cpp:24 INVNO 1
CALL THREADID 0 CALLERNAME _ZN1DC2Eii CALLEENAME _ZN1BC1Ei TS 0_1_10 ARGS NONE STATICCALL [	101135463898 B( d )	] INSLOC /data/user-home/srijoni/PIN_Tests/smartKT/testsuite/constructor_basic/basic.cpp:14 INVNO 1
CALL THREADID 0 CALLERNAME _ZN1BC1Ei CALLEENAME _ZStlsISt11char_traitsIcEERSt13basic_ostreamIcT_ES5_PKc@plt TS 0_1_11 ARGS NONE STATICCALL [	102806328641 cout<< "B::B(int): "	] INSLOC /data/user-home/srijoni/PIN_Tests/smartKT/testsuite/constructor_basic/basic.cpp:8 INVNO 2
CALL THREADID 0 CALLERNAME _ZN1BC1Ei CALLEENAME _ZNSolsEi@plt TS 0_1_12 ARGS NONE STATICCALL [	102212791327 cout<< "B::B(int): " << data_	] INSLOC /data/user-home/srijoni/PIN_Tests/smartKT/testsuite/constructor_basic/basic.cpp:8 INVNO 2
CALL THREADID 0 CALLERNAME _ZN1BC1Ei CALLEENAME _ZNSolsEPFRSoS_E@plt TS 0_1_13 ARGS NONE STATICCALL [	102473250808 cout<< "B::B(int): " << data_ << endl	] INSLOC /data/user-home/srijoni/PIN_Tests/smartKT/testsuite/constructor_basic/basic.cpp:8 INVNO 2
RETURN THREADID 0 FUNCNAME _ZN1BC1Ei TS 0_1_14 INSLOC /data/user-home/srijoni/PIN_Tests/smartKT/testsuite/constructor_basic/basic.cpp:8 INVNO 2
CALL THREADID 0 CALLERNAME _ZN1DC2Eii CALLEENAME _ZStlsISt11char_traitsIcEERSt13basic_ostreamIcT_ES5_PKc@plt TS 0_1_15 ARGS NONE STATICCALL [	100823739373 cout<< "D::D(int, int): "	103304455313 cout<< "D::D(int, int): " << data_ << ", "	] INSLOC /data/user-home/srijoni/PIN_Tests/smartKT/testsuite/constructor_basic/basic.cpp:15 INVNO 1
CALL THREADID 0 CALLERNAME _ZN1DC2Eii CALLEENAME _ZNSolsEi@plt TS 0_1_16 ARGS NONE STATICCALL [	103570648017 cout<< "D::D(int, int): " << data_	103898526359 cout<< "D::D(int, int): " << data_ << ", " << info_	] INSLOC /data/user-home/srijoni/PIN_Tests/smartKT/testsuite/constructor_basic/basic.cpp:15 INVNO 1
CALL THREADID 0 CALLERNAME _ZN1DC2Eii CALLEENAME _ZStlsISt11char_traitsIcEERSt13basic_ostreamIcT_ES5_PKc@plt TS 0_1_17 ARGS NONE STATICCALL [	100823739373 cout<< "D::D(int, int): "	103304455313 cout<< "D::D(int, int): " << data_ << ", "	] INSLOC /data/user-home/srijoni/PIN_Tests/smartKT/testsuite/constructor_basic/basic.cpp:15 INVNO 1
CALL THREADID 0 CALLERNAME _ZN1DC2Eii CALLEENAME _ZNSolsEi@plt TS 0_1_18 ARGS NONE STATICCALL [	103570648017 cout<< "D::D(int, int): " << data_	103898526359 cout<< "D::D(int, int): " << data_ << ", " << info_	] INSLOC /data/user-home/srijoni/PIN_Tests/smartKT/testsuite/constructor_basic/basic.cpp:15 INVNO 1
CALL THREADID 0 CALLERNAME _ZN1DC2Eii CALLEENAME _ZNSolsEPFRSoS_E@plt TS 0_1_19 ARGS NONE STATICCALL [	101401982534 cout<< "D::D(int, int): " << data_ << ", " << info_ << endl	] INSLOC /data/user-home/srijoni/PIN_Tests/smartKT/testsuite/constructor_basic/basic.cpp:15 INVNO 1
RETURN THREADID 0 FUNCNAME _ZN1DC2Eii TS 0_1_20 INSLOC /data/user-home/srijoni/PIN_Tests/smartKT/testsuite/constructor_basic/basic.cpp:15 INVNO 1
CALL THREADID 0 CALLERNAME main CALLEENAME _ZN1DC1Ei TS 0_1_21 ARGS NONE STATICCALL [	100171009472 d2( 3 )	] INSLOC /data/user-home/srijoni/PIN_Tests/smartKT/testsuite/constructor_basic/basic.cpp:25 INVNO 1
CALL THREADID 0 CALLERNAME _ZN1DC1Ei CALLEENAME _ZN1BC1Ei TS 0_1_22 ARGS NONE STATICCALL [	] INSLOC /data/user-home/srijoni/PIN_Tests/smartKT/testsuite/constructor_basic/basic.cpp:16 INVNO 1
CALL THREADID 0 CALLERNAME _ZN1BC1Ei CALLEENAME _ZStlsISt11char_traitsIcEERSt13basic_ostreamIcT_ES5_PKc@plt TS 0_1_23 ARGS NONE STATICCALL [	102806328641 cout<< "B::B(int): "	] INSLOC /data/user-home/srijoni/PIN_Tests/smartKT/testsuite/constructor_basic/basic.cpp:8 INVNO 3
CALL THREADID 0 CALLERNAME _ZN1BC1Ei CALLEENAME _ZNSolsEi@plt TS 0_1_24 ARGS NONE STATICCALL [	102212791327 cout<< "B::B(int): " << data_	] INSLOC /data/user-home/srijoni/PIN_Tests/smartKT/testsuite/constructor_basic/basic.cpp:8 INVNO 3
CALL THREADID 0 CALLERNAME _ZN1BC1Ei CALLEENAME _ZNSolsEPFRSoS_E@plt TS 0_1_25 ARGS NONE STATICCALL [	102473250808 cout<< "B::B(int): " << data_ << endl	] INSLOC /data/user-home/srijoni/PIN_Tests/smartKT/testsuite/constructor_basic/basic.cpp:8 INVNO 3
RETURN THREADID 0 FUNCNAME _ZN1BC1Ei TS 0_1_26 INSLOC /data/user-home/srijoni/PIN_Tests/smartKT/testsuite/constructor_basic/basic.cpp:8 INVNO 3
CALL THREADID 0 CALLERNAME _ZN1DC1Ei CALLEENAME _ZStlsISt11char_traitsIcEERSt13basic_ostreamIcT_ES5_PKc@plt TS 0_1_27 ARGS NONE STATICCALL [	102250361040 cout<< "D::D(int): "	102868764562 cout<< "D::D(int): " << data_ << ", "	] INSLOC /data/user-home/srijoni/PIN_Tests/smartKT/testsuite/constructor_basic/basic.cpp:17 INVNO 1
CALL THREADID 0 CALLERNAME _ZN1DC1Ei CALLEENAME _ZNSolsEi@plt TS 0_1_28 ARGS NONE STATICCALL [	103655715206 cout<< "D::D(int): " << data_ << ", " << info_	103988584794 cout<< "D::D(int): " << data_	] INSLOC /data/user-home/srijoni/PIN_Tests/smartKT/testsuite/constructor_basic/basic.cpp:17 INVNO 1
CALL THREADID 0 CALLERNAME _ZN1DC1Ei CALLEENAME _ZStlsISt11char_traitsIcEERSt13basic_ostreamIcT_ES5_PKc@plt TS 0_1_29 ARGS NONE STATICCALL [	102250361040 cout<< "D::D(int): "	102868764562 cout<< "D::D(int): " << data_ << ", "	] INSLOC /data/user-home/srijoni/PIN_Tests/smartKT/testsuite/constructor_basic/basic.cpp:17 INVNO 1
CALL THREADID 0 CALLERNAME _ZN1DC1Ei CALLEENAME _ZNSolsEi@plt TS 0_1_30 ARGS NONE STATICCALL [	103655715206 cout<< "D::D(int): " << data_ << ", " << info_	103988584794 cout<< "D::D(int): " << data_	] INSLOC /data/user-home/srijoni/PIN_Tests/smartKT/testsuite/constructor_basic/basic.cpp:17 INVNO 1
CALL THREADID 0 CALLERNAME _ZN1DC1Ei CALLEENAME _ZNSolsEPFRSoS_E@plt TS 0_1_31 ARGS NONE STATICCALL [	100359495118 cout<< "D::D(int): " << data_ << ", " << info_ << endl	] INSLOC /data/user-home/srijoni/PIN_Tests/smartKT/testsuite/constructor_basic/basic.cpp:17 INVNO 1
RETURN THREADID 0 FUNCNAME _ZN1DC1Ei TS 0_1_32 INSLOC /data/user-home/srijoni/PIN_Tests/smartKT/testsuite/constructor_basic/basic.cpp:17 INVNO 1
CALL THREADID 0 CALLERNAME main CALLEENAME _ZN1DD1Ev TS 0_1_33 ARGS NONE STATICCALL [	] INSLOC /data/user-home/srijoni/PIN_Tests/smartKT/testsuite/constructor_basic/basic.cpp:25 INVNO 1
CALL THREADID 0 CALLERNAME _ZN1DD1Ev CALLEENAME _ZStlsISt11char_traitsIcEERSt13basic_ostreamIcT_ES5_PKc@plt TS 0_1_34 ARGS NONE STATICCALL [	100368486465 cout<< "D::~D(): " << data_ << ", "	104293911908 cout<< "D::~D(): "	] INSLOC /data/user-home/srijoni/PIN_Tests/smartKT/testsuite/constructor_basic/basic.cpp:18 INVNO 1
CALL THREADID 0 CALLERNAME _ZN1DD1Ev CALLEENAME _ZNSolsEi@plt TS 0_1_35 ARGS NONE STATICCALL [	100779275902 cout<< "D::~D(): " << data_	103789848294 cout<< "D::~D(): " << data_ << ", " << info_	] INSLOC /data/user-home/srijoni/PIN_Tests/smartKT/testsuite/constructor_basic/basic.cpp:18 INVNO 1
CALL THREADID 0 CALLERNAME _ZN1DD1Ev CALLEENAME _ZStlsISt11char_traitsIcEERSt13basic_ostreamIcT_ES5_PKc@plt TS 0_1_36 ARGS NONE STATICCALL [	100368486465 cout<< "D::~D(): " << data_ << ", "	104293911908 cout<< "D::~D(): "	] INSLOC /data/user-home/srijoni/PIN_Tests/smartKT/testsuite/constructor_basic/basic.cpp:18 INVNO 1
CALL THREADID 0 CALLERNAME _ZN1DD1Ev CALLEENAME _ZNSolsEi@plt TS 0_1_37 ARGS NONE STATICCALL [	100779275902 cout<< "D::~D(): " << data_	103789848294 cout<< "D::~D(): " << data_ << ", " << info_	] INSLOC /data/user-home/srijoni/PIN_Tests/smartKT/testsuite/constructor_basic/basic.cpp:18 INVNO 1
CALL THREADID 0 CALLERNAME _ZN1DD1Ev CALLEENAME _ZNSolsEPFRSoS_E@plt TS 0_1_38 ARGS NONE STATICCALL [	101068531638 cout<< "D::~D(): " << data_ << ", " << info_ << endl	] INSLOC /data/user-home/srijoni/PIN_Tests/smartKT/testsuite/constructor_basic/basic.cpp:18 INVNO 1
CALL THREADID 0 CALLERNAME _ZN1DD1Ev CALLEENAME _ZN1BD2Ev TS 0_1_39 ARGS NONE STATICCALL [	] INSLOC /data/user-home/srijoni/PIN_Tests/smartKT/testsuite/constructor_basic/basic.cpp:18 INVNO 1
CALL THREADID 0 CALLERNAME _ZN1BD2Ev CALLEENAME _ZStlsISt11char_traitsIcEERSt13basic_ostreamIcT_ES5_PKc@plt TS 0_1_40 ARGS NONE STATICCALL [	103739892300 cout<< "B::~B(): "	] INSLOC /data/user-home/srijoni/PIN_Tests/smartKT/testsuite/constructor_basic/basic.cpp:9 INVNO 1
CALL THREADID 0 CALLERNAME _ZN1BD2Ev CALLEENAME _ZNSolsEi@plt TS 0_1_41 ARGS NONE STATICCALL [	101880159468 cout<< "B::~B(): " << data_	] INSLOC /data/user-home/srijoni/PIN_Tests/smartKT/testsuite/constructor_basic/basic.cpp:9 INVNO 1
CALL THREADID 0 CALLERNAME _ZN1BD2Ev CALLEENAME _ZNSolsEPFRSoS_E@plt TS 0_1_42 ARGS NONE STATICCALL [	103586515321 cout<< "B::~B(): " << data_ << endl	] INSLOC /data/user-home/srijoni/PIN_Tests/smartKT/testsuite/constructor_basic/basic.cpp:9 INVNO 1
RETURN THREADID 0 FUNCNAME _ZN1BD2Ev TS 0_1_43 INSLOC /data/user-home/srijoni/PIN_Tests/smartKT/testsuite/constructor_basic/basic.cpp:9 INVNO 1
RETURN THREADID 0 FUNCNAME _ZN1DD1Ev TS 0_1_44 INSLOC /data/user-home/srijoni/PIN_Tests/smartKT/testsuite/constructor_basic/basic.cpp:18 INVNO 1
CALL THREADID 0 CALLERNAME main CALLEENAME _ZN1DD1Ev TS 0_1_45 ARGS NONE STATICCALL [	] INSLOC /data/user-home/srijoni/PIN_Tests/smartKT/testsuite/constructor_basic/basic.cpp:24 INVNO 1
CALL THREADID 0 CALLERNAME _ZN1DD1Ev CALLEENAME _ZStlsISt11char_traitsIcEERSt13basic_ostreamIcT_ES5_PKc@plt TS 0_1_46 ARGS NONE STATICCALL [	100368486465 cout<< "D::~D(): " << data_ << ", "	104293911908 cout<< "D::~D(): "	] INSLOC /data/user-home/srijoni/PIN_Tests/smartKT/testsuite/constructor_basic/basic.cpp:18 INVNO 2
CALL THREADID 0 CALLERNAME _ZN1DD1Ev CALLEENAME _ZNSolsEi@plt TS 0_1_47 ARGS NONE STATICCALL [	100779275902 cout<< "D::~D(): " << data_	103789848294 cout<< "D::~D(): " << data_ << ", " << info_	] INSLOC /data/user-home/srijoni/PIN_Tests/smartKT/testsuite/constructor_basic/basic.cpp:18 INVNO 2
CALL THREADID 0 CALLERNAME _ZN1DD1Ev CALLEENAME _ZStlsISt11char_traitsIcEERSt13basic_ostreamIcT_ES5_PKc@plt TS 0_1_48 ARGS NONE STATICCALL [	100368486465 cout<< "D::~D(): " << data_ << ", "	104293911908 cout<< "D::~D(): "	] INSLOC /data/user-home/srijoni/PIN_Tests/smartKT/testsuite/constructor_basic/basic.cpp:18 INVNO 2
CALL THREADID 0 CALLERNAME _ZN1DD1Ev CALLEENAME _ZNSolsEi@plt TS 0_1_49 ARGS NONE STATICCALL [	100779275902 cout<< "D::~D(): " << data_	103789848294 cout<< "D::~D(): " << data_ << ", " << info_	] INSLOC /data/user-home/srijoni/PIN_Tests/smartKT/testsuite/constructor_basic/basic.cpp:18 INVNO 2
CALL THREADID 0 CALLERNAME _ZN1DD1Ev CALLEENAME _ZNSolsEPFRSoS_E@plt TS 0_1_50 ARGS NONE STATICCALL [	101068531638 cout<< "D::~D(): " << data_ << ", " << info_ << endl	] INSLOC /data/user-home/srijoni/PIN_Tests/smartKT/testsuite/constructor_basic/basic.cpp:18 INVNO 2
CALL THREADID 0 CALLERNAME _ZN1DD1Ev CALLEENAME _ZN1BD2Ev TS 0_1_51 ARGS NONE STATICCALL [	] INSLOC /data/user-home/srijoni/PIN_Tests/smartKT/testsuite/constructor_basic/basic.cpp:18 INVNO 2
CALL THREADID 0 CALLERNAME _ZN1BD2Ev CALLEENAME _ZStlsISt11char_traitsIcEERSt13basic_ostreamIcT_ES5_PKc@plt TS 0_1_52 ARGS NONE STATICCALL [	103739892300 cout<< "B::~B(): "	] INSLOC /data/user-home/srijoni/PIN_Tests/smartKT/testsuite/constructor_basic/basic.cpp:9 INVNO 2
CALL THREADID 0 CALLERNAME _ZN1BD2Ev CALLEENAME _ZNSolsEi@plt TS 0_1_53 ARGS NONE STATICCALL [	101880159468 cout<< "B::~B(): " << data_	] INSLOC /data/user-home/srijoni/PIN_Tests/smartKT/testsuite/constructor_basic/basic.cpp:9 INVNO 2
CALL THREADID 0 CALLERNAME _ZN1BD2Ev CALLEENAME _ZNSolsEPFRSoS_E@plt TS 0_1_54 ARGS NONE STATICCALL [	103586515321 cout<< "B::~B(): " << data_ << endl	] INSLOC /data/user-home/srijoni/PIN_Tests/smartKT/testsuite/constructor_basic/basic.cpp:9 INVNO 2
RETURN THREADID 0 FUNCNAME _ZN1BD2Ev TS 0_1_55 INSLOC /data/user-home/srijoni/PIN_Tests/smartKT/testsuite/constructor_basic/basic.cpp:9 INVNO 2
RETURN THREADID 0 FUNCNAME _ZN1DD1Ev TS 0_1_56 INSLOC /data/user-home/srijoni/PIN_Tests/smartKT/testsuite/constructor_basic/basic.cpp:18 INVNO 2
CALL THREADID 0 CALLERNAME main CALLEENAME _ZN1BD2Ev TS 0_1_57 ARGS NONE STATICCALL [	] INSLOC /data/user-home/srijoni/PIN_Tests/smartKT/testsuite/constructor_basic/basic.cpp:23 INVNO 1
CALL THREADID 0 CALLERNAME _ZN1BD2Ev CALLEENAME _ZStlsISt11char_traitsIcEERSt13basic_ostreamIcT_ES5_PKc@plt TS 0_1_58 ARGS NONE STATICCALL [	103739892300 cout<< "B::~B(): "	] INSLOC /data/user-home/srijoni/PIN_Tests/smartKT/testsuite/constructor_basic/basic.cpp:9 INVNO 3
CALL THREADID 0 CALLERNAME _ZN1BD2Ev CALLEENAME _ZNSolsEi@plt TS 0_1_59 ARGS NONE STATICCALL [	101880159468 cout<< "B::~B(): " << data_	] INSLOC /data/user-home/srijoni/PIN_Tests/smartKT/testsuite/constructor_basic/basic.cpp:9 INVNO 3
CALL THREADID 0 CALLERNAME _ZN1BD2Ev CALLEENAME _ZNSolsEPFRSoS_E@plt TS 0_1_60 ARGS NONE STATICCALL [	103586515321 cout<< "B::~B(): " << data_ << endl	] INSLOC /data/user-home/srijoni/PIN_Tests/smartKT/testsuite/constructor_basic/basic.cpp:9 INVNO 3
RETURN THREADID 0 FUNCNAME _ZN1BD2Ev TS 0_1_61 INSLOC /data/user-home/srijoni/PIN_Tests/smartKT/testsuite/constructor_basic/basic.cpp:9 INVNO 3
RETURN THREADID 0 FUNCNAME main TS 0_1_62 RETVAL 0 INSLOC /data/user-home/srijoni/PIN_Tests/smartKT/testsuite/constructor_basic/basic.cpp:28 INVNO 1
